
task4.elf:     file format elf32-littlenios2
task4.elf
architecture: nios2:r1, flags 0x00000112:
EXEC_P, HAS_SYMS, D_PAGED
start address 0x00800238

Program Header:
    LOAD off    0x00001000 vaddr 0x00800000 paddr 0x00800000 align 2**12
         filesz 0x00000020 memsz 0x00000020 flags r-x
    LOAD off    0x00001020 vaddr 0x00800020 paddr 0x00800020 align 2**12
         filesz 0x00013148 memsz 0x00013148 flags r-x
    LOAD off    0x00014168 vaddr 0x00813168 paddr 0x00814d40 align 2**12
         filesz 0x00001bd8 memsz 0x00001bd8 flags rw-
    LOAD off    0x00016918 vaddr 0x00816918 paddr 0x00816918 align 2**12
         filesz 0x00000000 memsz 0x00000158 flags rw-

Sections:
Idx Name          Size      VMA       LMA       File off  Algn
  0 .entry        00000020  00800000  00800000  00001000  2**5
                  CONTENTS, ALLOC, LOAD, READONLY, CODE
  1 .exceptions   00000218  00800020  00800020  00001020  2**2
                  CONTENTS, ALLOC, LOAD, READONLY, CODE
  2 .text         000126a0  00800238  00800238  00001238  2**2
                  CONTENTS, ALLOC, LOAD, READONLY, CODE
  3 .rodata       00000890  008128d8  008128d8  000138d8  2**2
                  CONTENTS, ALLOC, LOAD, READONLY, DATA
  4 .rwdata       00001bd8  00813168  00814d40  00014168  2**2
                  CONTENTS, ALLOC, LOAD, DATA, SMALL_DATA
  5 .bss          00000158  00816918  00816918  00016918  2**2
                  ALLOC, SMALL_DATA
  6 .sdram        00000000  00816a70  00816a70  00015d40  2**0
                  CONTENTS
  7 .comment      0000002c  00000000  00000000  00015d40  2**0
                  CONTENTS, READONLY
  8 .debug_aranges 00001200  00000000  00000000  00015d70  2**3
                  CONTENTS, READONLY, DEBUGGING
  9 .debug_info   00053604  00000000  00000000  00016f70  2**0
                  CONTENTS, READONLY, DEBUGGING
 10 .debug_abbrev 0001136a  00000000  00000000  0006a574  2**0
                  CONTENTS, READONLY, DEBUGGING
 11 .debug_line   0001d41b  00000000  00000000  0007b8de  2**0
                  CONTENTS, READONLY, DEBUGGING
 12 .debug_frame  0000272c  00000000  00000000  00098cfc  2**2
                  CONTENTS, READONLY, DEBUGGING
 13 .debug_str    000048ab  00000000  00000000  0009b428  2**0
                  CONTENTS, READONLY, DEBUGGING
 14 .debug_loc    00021cb3  00000000  00000000  0009fcd3  2**0
                  CONTENTS, READONLY, DEBUGGING
 15 .debug_alt_sim_info 00000030  00000000  00000000  000c1988  2**2
                  CONTENTS, READONLY, DEBUGGING
 16 .debug_ranges 00002158  00000000  00000000  000c19b8  2**3
                  CONTENTS, READONLY, DEBUGGING
 17 .thread_model 00000003  00000000  00000000  000c71d6  2**0
                  CONTENTS, READONLY
 18 .cpu          00000003  00000000  00000000  000c71d9  2**0
                  CONTENTS, READONLY
 19 .qsys         00000001  00000000  00000000  000c71dc  2**0
                  CONTENTS, READONLY
 20 .simulation_enabled 00000001  00000000  00000000  000c71dd  2**0
                  CONTENTS, READONLY
 21 .sysid_hash   00000004  00000000  00000000  000c71de  2**0
                  CONTENTS, READONLY
 22 .sysid_base   00000004  00000000  00000000  000c71e2  2**0
                  CONTENTS, READONLY
 23 .sysid_time   00000004  00000000  00000000  000c71e6  2**0
                  CONTENTS, READONLY
 24 .stderr_dev   00000009  00000000  00000000  000c71ea  2**0
                  CONTENTS, READONLY
 25 .stdin_dev    00000009  00000000  00000000  000c71f3  2**0
                  CONTENTS, READONLY
 26 .stdout_dev   00000009  00000000  00000000  000c71fc  2**0
                  CONTENTS, READONLY
 27 .sopc_system_name 00000012  00000000  00000000  000c7205  2**0
                  CONTENTS, READONLY
 28 .quartus_project_dir 00000029  00000000  00000000  000c7217  2**0
                  CONTENTS, READONLY
 29 .jdi          00005099  00000000  00000000  000c7240  2**0
                  CONTENTS, READONLY
 30 .sopcinfo     0003b0ff  00000000  00000000  000cc2d9  2**0
                  CONTENTS, READONLY
SYMBOL TABLE:
00800000 l    d  .entry	00000000 .entry
00800020 l    d  .exceptions	00000000 .exceptions
00800238 l    d  .text	00000000 .text
008128d8 l    d  .rodata	00000000 .rodata
00813168 l    d  .rwdata	00000000 .rwdata
00816918 l    d  .bss	00000000 .bss
00816a70 l    d  .sdram	00000000 .sdram
00000000 l    d  .comment	00000000 .comment
00000000 l    d  .debug_aranges	00000000 .debug_aranges
00000000 l    d  .debug_info	00000000 .debug_info
00000000 l    d  .debug_abbrev	00000000 .debug_abbrev
00000000 l    d  .debug_line	00000000 .debug_line
00000000 l    d  .debug_frame	00000000 .debug_frame
00000000 l    d  .debug_str	00000000 .debug_str
00000000 l    d  .debug_loc	00000000 .debug_loc
00000000 l    d  .debug_alt_sim_info	00000000 .debug_alt_sim_info
00000000 l    d  .debug_ranges	00000000 .debug_ranges
00000000 l    df *ABS*	00000000 ../task4_bsp//obj/HAL/src/crt0.o
00800280 l       .text	00000000 alt_after_alt_main
00000000 l    df *ABS*	00000000 alt_irq_handler.c
00000000 l    df *ABS*	00000000 alt_instruction_exception_entry.c
00000000 l    df *ABS*	00000000 hello_world.c
00000000 l    df *ABS*	00000000 s_cos.c
00000000 l    df *ABS*	00000000 e_rem_pio2.c
00812940 l     O .rodata	00000080 npio2_hw
008129c0 l     O .rodata	00000108 two_over_pi
00000000 l    df *ABS*	00000000 k_cos.c
00000000 l    df *ABS*	00000000 k_rem_pio2.c
00812b08 l     O .rodata	00000010 init_jk
00812ac8 l     O .rodata	00000040 PIo2
00000000 l    df *ABS*	00000000 k_sin.c
00000000 l    df *ABS*	00000000 s_floor.c
00000000 l    df *ABS*	00000000 s_scalbn.c
00000000 l    df *ABS*	00000000 lib2-divmod.c
00000000 l    df *ABS*	00000000 addsf3.c
00000000 l    df *ABS*	00000000 mulsf3.c
00000000 l    df *ABS*	00000000 adddf3.c
00000000 l    df *ABS*	00000000 divdf3.c
00000000 l    df *ABS*	00000000 eqdf2.c
00000000 l    df *ABS*	00000000 gedf2.c
00000000 l    df *ABS*	00000000 muldf3.c
00000000 l    df *ABS*	00000000 subdf3.c
00000000 l    df *ABS*	00000000 fixdfsi.c
00000000 l    df *ABS*	00000000 floatsidf.c
00000000 l    df *ABS*	00000000 extendsfdf2.c
00000000 l    df *ABS*	00000000 truncdfsf2.c
00000000 l    df *ABS*	00000000 libgcc2.c
00000000 l    df *ABS*	00000000 lib2-mul.c
00000000 l    df *ABS*	00000000 libgcc2.c
00000000 l    df *ABS*	00000000 printf.c
00000000 l    df *ABS*	00000000 puts.c
00000000 l    df *ABS*	00000000 strlen.c
00000000 l    df *ABS*	00000000 vfprintf.c
00807c68 l     F .text	000000c0 __sbprintf
00812c70 l     O .rodata	00000010 blanks.5176
00812c60 l     O .rodata	00000010 zeroes.5177
00000000 l    df *ABS*	00000000 wsetup.c
00000000 l    df *ABS*	00000000 dtoa.c
00807e84 l     F .text	00000220 quorem
00000000 l    df *ABS*	00000000 fflush.c
00000000 l    df *ABS*	00000000 findfp.c
00809aa4 l     F .text	00000008 __fp_lock
00809ab8 l     F .text	00000168 __sinit.part.0
00809c20 l     F .text	00000008 __fp_unlock
00000000 l    df *ABS*	00000000 mallocr.c
00000000 l    df *ABS*	00000000 fvwrite.c
00000000 l    df *ABS*	00000000 fwalk.c
00000000 l    df *ABS*	00000000 impure.c
00813168 l     O .rwdata	00000424 impure_data
00000000 l    df *ABS*	00000000 localeconv.c
00000000 l    df *ABS*	00000000 makebuf.c
00000000 l    df *ABS*	00000000 mallocr.c
00000000 l    df *ABS*	00000000 memchr.c
00000000 l    df *ABS*	00000000 memcpy.c
00000000 l    df *ABS*	00000000 memmove.c
00000000 l    df *ABS*	00000000 memset.c
00000000 l    df *ABS*	00000000 mprec.c
00812d24 l     O .rodata	0000000c p05.3991
00000000 l    df *ABS*	00000000 mallocr.c
00000000 l    df *ABS*	00000000 sbrkr.c
00000000 l    df *ABS*	00000000 stdio.c
00000000 l    df *ABS*	00000000 vfprintf.c
0080ce18 l     F .text	000000f4 __sprint_r.part.0
0080e254 l     F .text	000000c0 __sbprintf
00812e58 l     O .rodata	00000010 blanks.5153
00812e48 l     O .rodata	00000010 zeroes.5154
00000000 l    df *ABS*	00000000 writer.c
00000000 l    df *ABS*	00000000 closer.c
00000000 l    df *ABS*	00000000 assert.c
00000000 l    df *ABS*	00000000 mallocr.c
00000000 l    df *ABS*	00000000 fclose.c
00000000 l    df *ABS*	00000000 fiprintf.c
00000000 l    df *ABS*	00000000 fputwc.c
00000000 l    df *ABS*	00000000 fstatr.c
00000000 l    df *ABS*	00000000 int_errno.c
00000000 l    df *ABS*	00000000 isattyr.c
00000000 l    df *ABS*	00000000 locale.c
00000000 l    df *ABS*	00000000 lseekr.c
00000000 l    df *ABS*	00000000 mbtowc_r.c
00000000 l    df *ABS*	00000000 readr.c
00000000 l    df *ABS*	00000000 strcmp.c
00000000 l    df *ABS*	00000000 vfiprintfr_1.c
00000000 l    df *ABS*	00000000 wbuf.c
00000000 l    df *ABS*	00000000 wcrtomb.c
00000000 l    df *ABS*	00000000 wctomb_r.c
00000000 l    df *ABS*	00000000 abort.c
00000000 l    df *ABS*	00000000 ctype_.c
00000000 l    df *ABS*	00000000 signal.c
0080ee38 l     F .text	0000004c _init_signal_r.part.0
00000000 l    df *ABS*	00000000 signalr.c
00000000 l    df *ABS*	00000000 libgcc2.c
00000000 l    df *ABS*	00000000 libgcc2.c
00000000 l    df *ABS*	00000000 ledf2.c
00000000 l    df *ABS*	00000000 unorddf2.c
00000000 l    df *ABS*	00000000 floatunsidf.c
00000000 l    df *ABS*	00000000 alt_close.c
0080ff04 l     F .text	0000003c alt_get_errno
00000000 l    df *ABS*	00000000 alt_dev.c
0081001c l     F .text	0000002c alt_dev_null_write
00000000 l    df *ABS*	00000000 alt_errno.c
00000000 l    df *ABS*	00000000 alt_exit.c
00000000 l    df *ABS*	00000000 alt_fstat.c
00810080 l     F .text	0000003c alt_get_errno
00000000 l    df *ABS*	00000000 alt_getpid.c
00000000 l    df *ABS*	00000000 alt_isatty.c
00810198 l     F .text	0000003c alt_get_errno
00000000 l    df *ABS*	00000000 alt_kill.c
00810284 l     F .text	0000003c alt_get_errno
00000000 l    df *ABS*	00000000 alt_load.c
008103ec l     F .text	00000068 alt_load_section
00000000 l    df *ABS*	00000000 alt_lseek.c
008104d8 l     F .text	0000003c alt_get_errno
00000000 l    df *ABS*	00000000 alt_main.c
00000000 l    df *ABS*	00000000 alt_malloc_lock.c
00000000 l    df *ABS*	00000000 alt_read.c
008106b8 l     F .text	0000003c alt_get_errno
00000000 l    df *ABS*	00000000 alt_release_fd.c
00000000 l    df *ABS*	00000000 alt_sbrk.c
00814d30 l     O .rwdata	00000004 heap_end
00000000 l    df *ABS*	00000000 alt_times.c
00810924 l     F .text	0000003c alt_get_errno
00000000 l    df *ABS*	00000000 alt_write.c
008109d8 l     F .text	0000003c alt_get_errno
00000000 l    df *ABS*	00000000 alt_sys_init.c
00810b18 l     F .text	00000034 alt_dev_reg
00813ca8 l     O .rwdata	00001060 jtag_uart
00000000 l    df *ABS*	00000000 altera_avalon_jtag_uart_fd.c
00000000 l    df *ABS*	00000000 altera_avalon_jtag_uart_init.c
00810e10 l     F .text	0000020c altera_avalon_jtag_uart_irq
0081101c l     F .text	000000a0 altera_avalon_jtag_uart_timeout
00000000 l    df *ABS*	00000000 altera_avalon_jtag_uart_ioctl.c
00000000 l    df *ABS*	00000000 altera_avalon_jtag_uart_read.c
00000000 l    df *ABS*	00000000 altera_avalon_jtag_uart_write.c
00000000 l    df *ABS*	00000000 altera_avalon_timer_sc.c
00811660 l     F .text	0000007c alt_avalon_timer_sc_irq
00000000 l    df *ABS*	00000000 alt_alarm_start.c
00000000 l    df *ABS*	00000000 alt_dcache_flush_all.c
00000000 l    df *ABS*	00000000 alt_dev_llist_insert.c
008118e0 l     F .text	0000003c alt_get_errno
00000000 l    df *ABS*	00000000 alt_do_ctors.c
00000000 l    df *ABS*	00000000 alt_do_dtors.c
00000000 l    df *ABS*	00000000 alt_icache_flush_all.c
00000000 l    df *ABS*	00000000 alt_iic.c
00000000 l    df *ABS*	00000000 alt_iic_isr_register.c
00000000 l    df *ABS*	00000000 alt_io_redirect.c
00811d58 l     F .text	000000d4 alt_open_fd
00000000 l    df *ABS*	00000000 alt_irq_vars.c
00000000 l    df *ABS*	00000000 alt_open.c
00811ea8 l     F .text	0000003c alt_get_errno
00811ee4 l     F .text	000000dc alt_file_locked
00000000 l    df *ABS*	00000000 alt_tick.c
00000000 l    df *ABS*	00000000 altera_nios2_gen2_irq.c
00000000 l    df *ABS*	00000000 alt_find_dev.c
00000000 l    df *ABS*	00000000 alt_find_file.c
00000000 l    df *ABS*	00000000 alt_get_fd.c
00000000 l    df *ABS*	00000000 alt_icache_flush.c
00000000 l    df *ABS*	00000000 atexit.c
00000000 l    df *ABS*	00000000 exit.c
00000000 l    df *ABS*	00000000 memcmp.c
00000000 l    df *ABS*	00000000 __atexit.c
00000000 l    df *ABS*	00000000 __call_atexit.c
00816944 g     O .bss	00000004 alt_instruction_exception_handler
0080c5e0 g     F .text	00000070 _mprec_log10
0080c6bc g     F .text	00000060 __any_on
0080e8cc g     F .text	00000058 _isatty_r
00812d30 g     O .rodata	00000028 __mprec_tinytens
008105f4 g     F .text	0000007c alt_main
008059ec g     F .text	000000cc _puts_r
00816970 g     O .bss	00000100 alt_irq
0080e9bc g     F .text	00000064 _lseek_r
00814d40 g       *ABS*	00000000 __flash_rwdata_start
00804314 g     F .text	00000080 .hidden __eqdf2
00816a70 g       *ABS*	00000000 __alt_heap_start
0080f0ec g     F .text	00000060 _kill_r
008059b4 g     F .text	00000038 printf
0080ecf0 g     F .text	0000006c _wcrtomb_r
0080ee98 g     F .text	00000084 _signal_r
0080cdb4 g     F .text	0000005c __sseek
00809db0 g     F .text	00000010 __sinit
0080eb90 g     F .text	00000148 __swbuf_r
0080e924 g     F .text	00000074 _setlocale_r
00809c28 g     F .text	00000078 __sfmoreglue
00810694 g     F .text	00000024 __malloc_unlock
0080b3c8 g     F .text	0000012c memmove
00809d9c g     F .text	00000014 _cleanup
0080b5e4 g     F .text	000000a4 _Balloc
00804394 g     F .text	000000f0 .hidden __gtdf2
008122cc g     F .text	00000024 altera_nios2_gen2_irq_init
00800000 g     F .entry	0000001c __reset
00810960 g     F .text	00000078 times
0080a81c g     F .text	00000008 __localeconv_l
00800020 g       *ABS*	00000000 __flash_exceptions_start
0080e86c g     F .text	00000060 _fstat_r
00816924 g     O .bss	00000004 errno
008022b8 g     F .text	000001e4 floor
0080cd2c g     F .text	00000008 __seofread
00816930 g     O .bss	00000004 alt_argv
0081cd08 g       *ABS*	00000000 _gp
00810178 g     F .text	00000020 getpid
00813b28 g     O .rwdata	00000180 alt_fd_list
00800720 g     F .text	0000074c __ieee754_rem_pio2
008122f0 g     F .text	00000090 alt_find_dev
0080b2c8 g     F .text	00000100 memcpy
00809aac g     F .text	0000000c _cleanup_r
008055e0 g     F .text	000000bc .hidden __floatsidf
00811e2c g     F .text	0000007c alt_io_redirect
0080fd30 g     F .text	000000f0 .hidden __ltdf2
008128d8 g       *ABS*	00000000 __DTOR_END__
00805ab8 g     F .text	00000010 puts
008125d0 g     F .text	00000098 alt_exception_cause_generated_bad_addr
0080c53c g     F .text	000000a4 __ratio
0080e238 g     F .text	0000001c __vfiprintf_internal
00811218 g     F .text	00000220 altera_avalon_jtag_uart_read
00805984 g     F .text	00000030 _printf_r
00802750 g     F .text	00000064 .hidden __udivsi3
008101d4 g     F .text	000000b0 isatty
0080ef1c g     F .text	000000c4 _raise_r
0080e3d0 g     F .text	00000064 __assert_func
00812d80 g     O .rodata	000000c8 __mprec_tens
00800e6c g     F .text	000004ac __kernel_cos
00812540 g     F .text	00000090 alt_icache_flush
00816920 g     O .bss	00000004 __malloc_top_pad
0080f14c g     F .text	00000004 _getpid_r
0080a824 g     F .text	0000000c _localeconv_r
0080ba54 g     F .text	00000054 __i2b
0080a210 g     F .text	000004cc __sfvwrite_r
0080efe0 g     F .text	000000b8 __sigtramp_r
0080cc80 g     F .text	00000058 _sbrk_r
0080ea70 g     F .text	00000064 _read_r
00814d28 g     O .rwdata	00000004 alt_max_fd
0080e50c g     F .text	000000f8 _fclose_r
00809a7c g     F .text	00000028 fflush
0081691c g     O .bss	00000004 __malloc_max_sbrked_mem
00801ff0 g     F .text	000002c8 __kernel_sin
0080569c g     F .text	000000fc .hidden __extendsfdf2
00803068 g     F .text	00000978 .hidden __adddf3
0080c2d4 g     F .text	00000104 __b2d
0080f76c g     F .text	000005c4 .hidden __umoddi3
00810514 g     F .text	000000e0 lseek
00814d08 g     O .rwdata	00000004 _global_impure_ptr
0080c71c g     F .text	00000564 _realloc_r
00816a70 g       *ABS*	00000000 __bss_end
00811c70 g     F .text	000000e8 alt_iic_isr_register
008121c4 g     F .text	00000108 alt_tick
0080f150 g     F .text	0000061c .hidden __udivdi3
0080e7d0 g     F .text	00000024 _fputwc_r
00812d58 g     O .rodata	00000028 __mprec_bigtens
0080b808 g     F .text	00000138 __s2b
0080ee20 g     F .text	00000018 abort
0080fe74 g     F .text	00000090 .hidden __floatunsidf
0080bff4 g     F .text	00000058 __mcmp
00809dd0 g     F .text	00000014 __fp_lock_all
00811c24 g     F .text	0000004c alt_ic_irq_enabled
00812120 g     F .text	000000a4 alt_alarm_stop
00816938 g     O .bss	00000004 alt_irq_active
008000fc g     F .exceptions	000000c8 alt_irq_handler
00813b00 g     O .rwdata	00000028 alt_dev_null
00801318 g     F .text	00000cd8 __kernel_rem_pio2
00811894 g     F .text	0000004c alt_dcache_flush_all
0080b940 g     F .text	00000064 __hi0bits
00805560 g     F .text	00000080 .hidden __fixdfsi
00814d40 g       *ABS*	00000000 __ram_rwdata_end
00814d20 g     O .rwdata	00000008 alt_dev_list
00810a14 g     F .text	00000104 write
00813168 g       *ABS*	00000000 __ram_rodata_end
008100bc g     F .text	000000bc fstat
008102c0 g     F .text	0000012c kill
0080fd30 g     F .text	000000f0 .hidden __ledf2
0080bd54 g     F .text	00000118 __pow5mult
0080cf24 g     F .text	00001314 ___vfiprintf_internal_r
008027b4 g     F .text	0000005c .hidden __umodsi3
00816a70 g       *ABS*	00000000 end
00810d50 g     F .text	000000c0 altera_avalon_jtag_uart_init
008001c4 g     F .exceptions	00000074 alt_instruction_exception_entry
008128d8 g       *ABS*	00000000 __CTOR_LIST__
01000000 g       *ABS*	00000000 __alt_stack_pointer
008116dc g     F .text	00000084 alt_avalon_timer_sc_init
00805908 g     F .text	00000054 .hidden __clzsi2
00811438 g     F .text	00000228 altera_avalon_jtag_uart_write
00800664 g     F .text	000000bc cos
00809dc0 g     F .text	00000004 __sfp_lock_acquire
0080b1f4 g     F .text	000000d4 memchr
00805b60 g     F .text	000020ec ___vfprintf_internal_r
00809f14 g     F .text	000002fc _free_r
00812fbc g     O .rodata	00000180 _ctype_b
0080e998 g     F .text	0000000c __locale_mb_cur_max
008127b8 g     F .text	00000120 __call_exitprocs
00814d10 g     O .rwdata	00000004 __malloc_sbrk_base
00800238 g     F .text	0000004c _start
0081693c g     O .bss	00000004 _alt_tick_rate
0080be6c g     F .text	00000188 __lshift
00816940 g     O .bss	00000004 _alt_nticks
0080f0a8 g     F .text	00000018 signal
008106f4 g     F .text	00000108 read
00810b88 g     F .text	00000064 alt_sys_init
00812728 g     F .text	00000090 __register_exitproc
0080baa8 g     F .text	000002ac __multiply
008110bc g     F .text	00000068 altera_avalon_jtag_uart_close
0080595c g     F .text	00000028 .hidden __mulsi3
00813168 g       *ABS*	00000000 __ram_rwdata_start
008128d8 g       *ABS*	00000000 __ram_rodata_start
00816948 g     O .bss	00000028 __malloc_current_mallinfo
0080c3d8 g     F .text	00000164 __d2b
00810bec g     F .text	00000060 altera_avalon_jtag_uart_read_fd
00812488 g     F .text	000000b8 alt_get_fd
0080e378 g     F .text	00000058 _close_r
00800284 g     F .text	000000ac generateVector
008126b0 g     F .text	00000078 memcmp
00810cac g     F .text	00000050 altera_avalon_jtag_uart_close_fd
00816a70 g       *ABS*	00000000 __alt_stack_base
00810cfc g     F .text	00000054 altera_avalon_jtag_uart_ioctl_fd
00807d28 g     F .text	0000015c __swsetup_r
008039e0 g     F .text	00000934 .hidden __divdf3
00809ca0 g     F .text	000000fc __sfp
0080c650 g     F .text	0000006c __copybits
0081358c g     O .rwdata	00000408 __malloc_av_
00809dcc g     F .text	00000004 __sinit_lock_release
00804484 g     F .text	000007a8 .hidden __muldf3
0080ccd8 g     F .text	00000054 __sread
00812380 g     F .text	00000108 alt_find_file
0081191c g     F .text	000000a8 alt_dev_llist_insert
00810670 g     F .text	00000024 __malloc_lock
0081086c g     F .text	000000b8 sbrk
00809a1c g     F .text	00000060 _fflush_r
0080e448 g     F .text	000000c4 _calloc_r
00816918 g       *ABS*	00000000 __bss_start
0080b4f4 g     F .text	000000f0 memset
00800560 g     F .text	00000104 main
00816934 g     O .bss	00000004 alt_envp
00816918 g     O .bss	00000004 __malloc_max_total_mem
00810c4c g     F .text	00000060 altera_avalon_jtag_uart_write_fd
0080ecd8 g     F .text	00000018 __swbuf
0080ce10 g     F .text	00000008 __sclose
01000000 g       *ABS*	00000000 __alt_heap_limit
0080e604 g     F .text	00000010 fclose
00805798 g     F .text	00000170 .hidden __truncdfsf2
008080a4 g     F .text	00001750 _dtoa_r
0080aa14 g     F .text	000007e0 _malloc_r
0080edf0 g     F .text	00000030 __ascii_wctomb
00814d2c g     O .rwdata	00000004 alt_errno
0080e614 g     F .text	00000020 _fiprintf_r
0080f0c0 g     F .text	0000001c _init_signal
0080a6dc g     F .text	00000098 _fwalk
0080ea20 g     F .text	0000000c _mbtowc_r
0080265c g     F .text	00000080 .hidden __divsi3
00809df8 g     F .text	0000011c _malloc_trim_r
008128d8 g       *ABS*	00000000 __CTOR_END__
00802c6c g     F .text	000003fc .hidden __mulsf3
0080ead4 g     F .text	000000b8 strcmp
008128d8 g       *ABS*	00000000 __flash_rodata_start
008128d8 g       *ABS*	00000000 __DTOR_LIST__
00804314 g     F .text	00000080 .hidden __nedf2
00810b4c g     F .text	0000003c alt_irq_init
008107fc g     F .text	00000070 alt_release_fd
00812b18 g     O .rodata	00000100 .hidden __clz_tab
00816928 g     O .bss	00000004 _PathLocale
00812668 g     F .text	00000014 atexit
00800330 g     F .text	00000230 sumVector
0080e314 g     F .text	00000064 _write_r
0080e9a4 g     F .text	00000018 setlocale
00814d0c g     O .rwdata	00000004 _impure_ptr
0081692c g     O .bss	00000004 alt_argc
008097f4 g     F .text	00000228 __sflush_r
0080249c g     F .text	000001c0 scalbn
00811a28 g     F .text	00000064 _do_dtors
00800020 g       .exceptions	00000000 alt_irq_entry
0080ea2c g     F .text	00000044 __ascii_mbtowc
0080c278 g     F .text	0000005c __ulp
00809de4 g     F .text	00000014 __fp_unlock_all
00814d18 g     O .rwdata	00000008 alt_fs_list
00800020 g       *ABS*	00000000 __ram_exceptions_start
0080a830 g     F .text	0000000c localeconv
0080a83c g     F .text	00000098 __swhatbuf_r
00811ac0 g     F .text	00000050 alt_ic_isr_register
00814d40 g       *ABS*	00000000 _edata
00816a70 g       *ABS*	00000000 _end
0080e66c g     F .text	00000164 __fputwc
00800238 g       *ABS*	00000000 __ram_exceptions_end
00811124 g     F .text	000000f4 altera_avalon_jtag_uart_ioctl
00811b98 g     F .text	0000008c alt_ic_irq_disable
0080cd34 g     F .text	00000080 __swrite
00814d14 g     O .rwdata	00000004 __malloc_trim_threshold
0081267c g     F .text	00000034 exit
0080e634 g     F .text	00000038 fiprintf
0080eb8c g     F .text	00000004 _vfiprintf_r
0080a774 g     F .text	000000a8 _fwalk_reent
0080c04c g     F .text	0000022c __mdiff
008026dc g     F .text	00000074 .hidden __modsi3
01000000 g       *ABS*	00000000 __alt_data_end
00800020 g     F .exceptions	00000000 alt_exception
00809dc4 g     F .text	00000004 __sfp_lock_release
00800000 g       *ABS*	00000000 __alt_mem_sdram
00812eb8 g     O .rodata	00000101 _ctype_
0080fe20 g     F .text	00000054 .hidden __unorddf2
00810048 g     F .text	00000038 _exit
00811760 g     F .text	00000134 alt_alarm_start
0080a8d4 g     F .text	00000140 __smakebuf_r
00805ac8 g     F .text	00000098 strlen
0080ee84 g     F .text	00000014 _init_signal_r
00811fc0 g     F .text	00000160 open
00804394 g     F .text	000000f0 .hidden __gedf2
0080e434 g     F .text	00000014 __assert
0080cf0c g     F .text	00000018 __sprint_r
00811a8c g     F .text	00000034 alt_icache_flush_all
00814d34 g     O .rwdata	00000004 alt_priority_mask
00811b10 g     F .text	00000088 alt_ic_irq_enable
00807c4c g     F .text	0000001c __vfprintf_internal
0080ede4 g     F .text	0000000c _wctomb_r
00804c2c g     F .text	00000934 .hidden __subdf3
0080b9a4 g     F .text	000000b0 __lo0bits
00814d38 g     O .rwdata	00000008 alt_alarm_list
008119c4 g     F .text	00000064 _do_ctors
0080f0dc g     F .text	00000010 __sigtramp
0080ed5c g     F .text	00000088 wcrtomb
0080ff40 g     F .text	000000dc close
00802810 g     F .text	0000045c .hidden __addsf3
00813994 g     O .rwdata	0000016c __global_locale
00810454 g     F .text	00000084 alt_load
0080e7f4 g     F .text	00000078 fputwc
0080f098 g     F .text	00000010 raise
00809dc8 g     F .text	00000004 __sinit_lock_acquire
0080b6ac g     F .text	0000015c __multadd
0080b688 g     F .text	00000024 _Bfree



Disassembly of section .entry:

00800000 <__reset>:
#if NIOS2_ICACHE_SIZE > 0 && defined(ALT_ALLOW_CODE_AT_RESET) && (!defined(ALT_SIM_OPTIMIZE) || defined(NIOS2_ECC_PRESENT))
    /* Assume the instruction cache size is always a power of two. */
#if NIOS2_ICACHE_SIZE > 0x8000
    movhi r2, %hi(NIOS2_ICACHE_SIZE)
#else
    movui r2, NIOS2_ICACHE_SIZE
  800000:	00840014 	movui	r2,4096
#endif

0:
    initi r2
  800004:	1001483a 	initi	r2
    addi r2, r2, -NIOS2_ICACHE_LINE_SIZE
  800008:	10bff804 	addi	r2,r2,-32
    bgt r2, zero, 0b
  80000c:	00bffd16 	blt	zero,r2,800004 <__reset+0x4>
 * Jump to the _start entry point in the .text section if reset code
 * is allowed or if optimizing for RTL simulation.
 */
#if defined(ALT_ALLOW_CODE_AT_RESET) || defined(ALT_SIM_OPTIMIZE)
    /* Jump to the _start entry point in the .text section. */
    movhi r1, %hi(_start)
  800010:	00402034 	movhi	at,128
    ori r1, r1, %lo(_start)
  800014:	08408e14 	ori	at,at,568
    jmp r1
  800018:	0800683a 	jmp	at
  80001c:	00000000 	call	0 <__alt_mem_sdram-0x800000>

Disassembly of section .exceptions:

00800020 <alt_exception>:

#else /* ALT_EXCEPTION_STACK disabled */
        /* 
         * Reserve space on normal stack for registers about to be pushed.
         */
        addi  sp, sp, -76
  800020:	deffed04 	addi	sp,sp,-76
         * documentation for details).
         *
         * Leave a gap in the stack frame at 4(sp) for the muldiv handler to
         * store zero into.
         */
        stw   ra,  0(sp)
  800024:	dfc00015 	stw	ra,0(sp)
        stw   r1,   8(sp)
  800028:	d8400215 	stw	at,8(sp)
        stw   r2,  12(sp)
  80002c:	d8800315 	stw	r2,12(sp)
        stw   r3,  16(sp)
  800030:	d8c00415 	stw	r3,16(sp)
        stw   r4,  20(sp)
  800034:	d9000515 	stw	r4,20(sp)
        stw   r5,  24(sp)
  800038:	d9400615 	stw	r5,24(sp)
        stw   r6,  28(sp)
  80003c:	d9800715 	stw	r6,28(sp)
        stw   r7,  32(sp)
  800040:	d9c00815 	stw	r7,32(sp)
        rdctl r5, estatus   /* Read early to avoid usage stall */
  800044:	000b307a 	rdctl	r5,estatus
        stw   r8,  36(sp)
  800048:	da000915 	stw	r8,36(sp)
        stw   r9,  40(sp)
  80004c:	da400a15 	stw	r9,40(sp)
        stw   r10, 44(sp)
  800050:	da800b15 	stw	r10,44(sp)
        stw   r11, 48(sp)
  800054:	dac00c15 	stw	r11,48(sp)
        stw   r12, 52(sp)
  800058:	db000d15 	stw	r12,52(sp)
        stw   r13, 56(sp)
  80005c:	db400e15 	stw	r13,56(sp)
        stw   r14, 60(sp)
  800060:	db800f15 	stw	r14,60(sp)
        stw   r15, 64(sp)
  800064:	dbc01015 	stw	r15,64(sp)
        /*
         * ea-4 contains the address of the instruction being executed
         * when the exception occured. For interrupt exceptions, we will
         * will be re-issue the isntruction. Store it in 72(sp)
         */
        stw   r5,  68(sp)  /* estatus */
  800068:	d9401115 	stw	r5,68(sp)
        addi  r15, ea, -4  /* instruction that caused exception */
  80006c:	ebffff04 	addi	r15,ea,-4
        stw   r15,  72(sp)
  800070:	dbc01215 	stw	r15,72(sp)
#else
        /*
         * Test to see if the exception was a software exception or caused 
         * by an external interrupt, and vector accordingly.
         */
        rdctl r4, ipending
  800074:	0009313a 	rdctl	r4,ipending
        andi  r2, r5, 1
  800078:	2880004c 	andi	r2,r5,1
        beq   r2, zero, .Lnot_irq
  80007c:	10000326 	beq	r2,zero,80008c <alt_exception+0x6c>
        beq   r4, zero, .Lnot_irq
  800080:	20000226 	beq	r4,zero,80008c <alt_exception+0x6c>
        /*
         * Now that all necessary registers have been preserved, call 
         * alt_irq_handler() to process the interrupts.
         */

        call alt_irq_handler
  800084:	08000fc0 	call	8000fc <alt_irq_handler>

        .section .exceptions.irqreturn, "xa"

        br    .Lexception_exit
  800088:	00000706 	br	8000a8 <alt_exception+0x88>
         * upon completion, so we write ea (address of instruction *after*
         * the one where the exception occured) into 72(sp). The actual
         * instruction that caused the exception is written in r2, which these
         * handlers will utilize.
         */
        stw ea, 72(sp) /* EA is PC+4 so will skip over instruction causing exception */
  80008c:	df401215 	stw	ea,72(sp)
.Lunknown_16bit:
        addi.n r4, r4, 2 /* Need PC+2 to skip over instruction causing exception */
        stw r4, 72(sp)

#else /* CDX is not Enabled and all instructions are 32bits */
        ldw r2, -4(ea) /* Instruction value that caused exception */
  800090:	e8bfff17 	ldw	r2,-4(ea)
         * debugger is present) or go into an infinite loop since the
         * handling behavior is undefined; in that case we will not return here.
         */

        /* Load exception-causing address as first argument (r4) */
        addi   r4, ea, -4
  800094:	e93fff04 	addi	r4,ea,-4

        /* Call the instruction-exception entry */
        call   alt_instruction_exception_entry
  800098:	08001c40 	call	8001c4 <alt_instruction_exception_entry>
         * instruction
         *
         * Return code was 0: Skip. The instruction after the exception is
         * already stored in 72(sp).
         */
        bne   r2, r0, .Lexception_exit
  80009c:	1000021e 	bne	r2,zero,8000a8 <alt_exception+0x88>

        /*
         * Otherwise, modify 72(sp) to re-issue the instruction that caused the
         * exception.
         */
        addi  r15, ea, -4  /* instruction that caused exception */
  8000a0:	ebffff04 	addi	r15,ea,-4
        stw   r15,  72(sp)
  8000a4:	dbc01215 	stw	r15,72(sp)
        /* 
         * Restore the saved registers, so that all general purpose registers 
         * have been restored to their state at the time the interrupt occured.
         */

        ldw   r5,  68(sp)
  8000a8:	d9401117 	ldw	r5,68(sp)
        ldw   ea,  72(sp)  /* This becomes the PC once eret is executed */
  8000ac:	df401217 	ldw	ea,72(sp)
        ldw   ra,   0(sp)
  8000b0:	dfc00017 	ldw	ra,0(sp)

        wrctl estatus, r5
  8000b4:	2801707a 	wrctl	estatus,r5

        ldw   r1,   8(sp)
  8000b8:	d8400217 	ldw	at,8(sp)
        ldw   r2,  12(sp)
  8000bc:	d8800317 	ldw	r2,12(sp)
        ldw   r3,  16(sp)
  8000c0:	d8c00417 	ldw	r3,16(sp)
        ldw   r4,  20(sp)
  8000c4:	d9000517 	ldw	r4,20(sp)
        ldw   r5,  24(sp)
  8000c8:	d9400617 	ldw	r5,24(sp)
        ldw   r6,  28(sp)
  8000cc:	d9800717 	ldw	r6,28(sp)
        ldw   r7,  32(sp)
  8000d0:	d9c00817 	ldw	r7,32(sp)

#if defined(ALT_EXCEPTION_STACK) && defined(ALT_STACK_CHECK)
        ldw   et, %gprel(alt_exception_old_stack_limit)(gp)
#endif

        ldw   r8,  36(sp)
  8000d4:	da000917 	ldw	r8,36(sp)
        ldw   r9,  40(sp)
  8000d8:	da400a17 	ldw	r9,40(sp)
        ldw   r10, 44(sp)
  8000dc:	da800b17 	ldw	r10,44(sp)
        ldw   r11, 48(sp)
  8000e0:	dac00c17 	ldw	r11,48(sp)
        ldw   r12, 52(sp)
  8000e4:	db000d17 	ldw	r12,52(sp)
        ldw   r13, 56(sp)
  8000e8:	db400e17 	ldw	r13,56(sp)
        ldw   r14, 60(sp)
  8000ec:	db800f17 	ldw	r14,60(sp)
        ldw   r15, 64(sp)
  8000f0:	dbc01017 	ldw	r15,64(sp)
        stw   et, %gprel(alt_stack_limit_value)(gp)
        stw   zero, %gprel(alt_exception_old_stack_limit)(gp)
#endif /* ALT_STACK_CHECK */
        ldw   sp,  76(sp)
#else /* ALT_EXCEPTION_STACK disabled */
        addi  sp, sp, 76
  8000f4:	dec01304 	addi	sp,sp,76

        /*
         * Return to the interrupted instruction.
         */

        eret
  8000f8:	ef80083a 	eret

008000fc <alt_irq_handler>:
 * instruction is present if the macro ALT_CI_INTERRUPT_VECTOR defined.
 */

void alt_irq_handler (void) __attribute__ ((section (".exceptions")));
void alt_irq_handler (void)
{
  8000fc:	defff904 	addi	sp,sp,-28
  800100:	dfc00615 	stw	ra,24(sp)
  800104:	df000515 	stw	fp,20(sp)
  800108:	df000504 	addi	fp,sp,20
  
  /*
   * Notify the operating system that we are at interrupt level.
   */ 
  
  ALT_OS_INT_ENTER();
  80010c:	0001883a 	nop
#ifndef NIOS2_EIC_PRESENT
static ALT_INLINE alt_u32 ALT_ALWAYS_INLINE alt_irq_pending (void)
{
  alt_u32 active;

  NIOS2_READ_IPENDING (active);
  800110:	0005313a 	rdctl	r2,ipending
  800114:	e0bffc15 	stw	r2,-16(fp)

  return active;
  800118:	e0bffc17 	ldw	r2,-16(fp)
   * Consider the case where the high priority interupt is asserted during
   * the interrupt entry sequence for a lower priority interrupt to see why
   * this is the case.
   */

  active = alt_irq_pending ();
  80011c:	e0bfff15 	stw	r2,-4(fp)

  do
  {
    i = 0;
  800120:	e03ffd15 	stw	zero,-12(fp)
    mask = 1;
  800124:	00800044 	movi	r2,1
  800128:	e0bffe15 	stw	r2,-8(fp)
     * called to clear the interrupt condition.
     */

    do
    {
      if (active & mask)
  80012c:	e0ffff17 	ldw	r3,-4(fp)
  800130:	e0bffe17 	ldw	r2,-8(fp)
  800134:	1884703a 	and	r2,r3,r2
  800138:	10001126 	beq	r2,zero,800180 <alt_irq_handler+0x84>
      { 
#ifdef ALT_ENHANCED_INTERRUPT_API_PRESENT
        alt_irq[i].handler(alt_irq[i].context); 
  80013c:	e0bffd17 	ldw	r2,-12(fp)
  800140:	100690fa 	slli	r3,r2,3
  800144:	00802074 	movhi	r2,129
  800148:	1885883a 	add	r2,r3,r2
  80014c:	10da5c17 	ldw	r3,26992(r2)
  800150:	e0bffd17 	ldw	r2,-12(fp)
  800154:	100890fa 	slli	r4,r2,3
  800158:	00802074 	movhi	r2,129
  80015c:	2085883a 	add	r2,r4,r2
  800160:	109a5d17 	ldw	r2,26996(r2)
  800164:	1009883a 	mov	r4,r2
  800168:	183ee83a 	callr	r3
#else
        alt_irq[i].handler(alt_irq[i].context, i); 
#endif
        break;
  80016c:	0001883a 	nop
  NIOS2_READ_IPENDING (active);
  800170:	0005313a 	rdctl	r2,ipending
  800174:	e0bffb15 	stw	r2,-20(fp)
  return active;
  800178:	e0bffb17 	ldw	r2,-20(fp)
  80017c:	00000706 	br	80019c <alt_irq_handler+0xa0>
      }
      mask <<= 1;
  800180:	e0bffe17 	ldw	r2,-8(fp)
  800184:	1085883a 	add	r2,r2,r2
  800188:	e0bffe15 	stw	r2,-8(fp)
      i++;
  80018c:	e0bffd17 	ldw	r2,-12(fp)
  800190:	10800044 	addi	r2,r2,1
  800194:	e0bffd15 	stw	r2,-12(fp)
      if (active & mask)
  800198:	003fe406 	br	80012c <alt_irq_handler+0x30>

    } while (1);

    active = alt_irq_pending ();
  80019c:	e0bfff15 	stw	r2,-4(fp)
    
  } while (active);
  8001a0:	e0bfff17 	ldw	r2,-4(fp)
  8001a4:	103fde1e 	bne	r2,zero,800120 <alt_irq_handler+0x24>

  /*
   * Notify the operating system that interrupt processing is complete.
   */ 

  ALT_OS_INT_EXIT();
  8001a8:	0001883a 	nop
}
  8001ac:	0001883a 	nop
  8001b0:	e037883a 	mov	sp,fp
  8001b4:	dfc00117 	ldw	ra,4(sp)
  8001b8:	df000017 	ldw	fp,0(sp)
  8001bc:	dec00204 	addi	sp,sp,8
  8001c0:	f800283a 	ret

008001c4 <alt_instruction_exception_entry>:
 * that handler if it has been registered. Absent a handler, it will
 * break break or hang as discussed below.
 */
int 
alt_instruction_exception_entry (alt_u32 exception_pc)
{
  8001c4:	defffb04 	addi	sp,sp,-20
  8001c8:	dfc00415 	stw	ra,16(sp)
  8001cc:	df000315 	stw	fp,12(sp)
  8001d0:	df000304 	addi	fp,sp,12
  8001d4:	e13ffd15 	stw	r4,-12(fp)
 * NIOS2_EXCEPTION_CAUSE_NOT_PRESENT. Your handling routine should
 * check the validity of the cause argument before proceeding.
 */
#ifdef NIOS2_HAS_EXTRA_EXCEPTION_INFO
  /* Get exception cause & "badaddr" */
  NIOS2_READ_EXCEPTION(cause);
  8001d8:	000531fa 	rdctl	r2,exception
  8001dc:	e0bfff15 	stw	r2,-4(fp)
  cause = ( (cause & NIOS2_EXCEPTION_REG_CAUSE_MASK) >>
  8001e0:	e0bfff17 	ldw	r2,-4(fp)
  8001e4:	1004d0ba 	srli	r2,r2,2
  8001e8:	108007cc 	andi	r2,r2,31
  8001ec:	e0bfff15 	stw	r2,-4(fp)
              NIOS2_EXCEPTION_REG_CAUSE_OFST );

  NIOS2_READ_BADADDR(badaddr);
  8001f0:	0005333a 	rdctl	r2,badaddr
  8001f4:	e0bffe15 	stw	r2,-8(fp)
#else
  cause = NIOS2_EXCEPTION_CAUSE_NOT_PRESENT;
  badaddr = 0;
#endif /* NIOS2_HAS_EXTRA_EXCEPTION_INFO */

  if(alt_instruction_exception_handler) {
  8001f8:	d0a70f17 	ldw	r2,-25540(gp)
  8001fc:	10000726 	beq	r2,zero,80021c <alt_instruction_exception_entry+0x58>
     * Call handler. Its return value indicates whether the exception-causing
     * instruction should be re-issued. The code that called us,
     * alt_eceptions_entry.S, will look at this value and adjust the ea
     * register as necessary
     */
    return alt_instruction_exception_handler(cause, exception_pc, badaddr);
  800200:	d0a70f17 	ldw	r2,-25540(gp)
  800204:	e0ffff17 	ldw	r3,-4(fp)
  800208:	e1bffe17 	ldw	r6,-8(fp)
  80020c:	e17ffd17 	ldw	r5,-12(fp)
  800210:	1809883a 	mov	r4,r3
  800214:	103ee83a 	callr	r2
  800218:	00000206 	br	800224 <alt_instruction_exception_entry+0x60>
   *    (a peripheral which negates its interrupt output before its
   *    interrupt handler has been executed will cause spurious interrupts)
   */
  else {
#ifdef NIOS2_HAS_DEBUG_STUB
    NIOS2_BREAK();
  80021c:	003da03a 	break	0
      ;
#endif /* NIOS2_HAS_DEBUG_STUB */
  }

  /* We should not get here. Remove compiler warning. */
  return NIOS2_EXCEPTION_RETURN_REISSUE_INST;
  800220:	0005883a 	mov	r2,zero
}
  800224:	e037883a 	mov	sp,fp
  800228:	dfc00117 	ldw	ra,4(sp)
  80022c:	df000017 	ldw	fp,0(sp)
  800230:	dec00204 	addi	sp,sp,8
  800234:	f800283a 	ret

Disassembly of section .text:

00800238 <_start>:

    /* Assume the data cache size is always a power of two. */
#if NIOS2_DCACHE_SIZE > 0x8000
    movhi r2, %hi(NIOS2_DCACHE_SIZE)
#else
    movui r2, NIOS2_DCACHE_SIZE
  800238:	00840014 	movui	r2,4096
#endif

0:
    initd 0(r2)
  80023c:	10000033 	initd	0(r2)
#ifdef NIOS2_ECC_PRESENT
    addi r2, r2, -4
#else
    addi r2, r2, -NIOS2_DCACHE_LINE_SIZE
  800240:	10bff804 	addi	r2,r2,-32
#endif
    bgt r2, zero, 0b
  800244:	00bffd16 	blt	zero,r2,80023c <_start+0x4>

    /*
     * Now that the caches are initialized, set up the stack pointer and global pointer.
     * The values provided by the linker are assumed to be correctly aligned.
     */
    movhi sp, %hi(__alt_stack_pointer)
  800248:	06c04034 	movhi	sp,256
    ori sp, sp, %lo(__alt_stack_pointer)
  80024c:	dec00014 	ori	sp,sp,0
    movhi gp, %hi(_gp)
  800250:	06802074 	movhi	gp,129
    ori gp, gp, %lo(_gp)
  800254:	d6b34214 	ori	gp,gp,52488
 */
#ifndef ALT_SIM_OPTIMIZE
    /* Log that the BSS is about to be cleared. */
    ALT_LOG_PUTS(alt_log_msg_bss)

    movhi r2, %hi(__bss_start)
  800258:	00802074 	movhi	r2,129
    ori r2, r2, %lo(__bss_start)
  80025c:	109a4614 	ori	r2,r2,26904

    movhi r3, %hi(__bss_end)
  800260:	00c02074 	movhi	r3,129
    ori r3, r3, %lo(__bss_end)
  800264:	18da9c14 	ori	r3,r3,27248

    beq r2, r3, 1f
  800268:	10c00326 	beq	r2,r3,800278 <_start+0x40>

0:
    stw zero, (r2)
  80026c:	10000015 	stw	zero,0(r2)
    addi r2, r2, 4
  800270:	10800104 	addi	r2,r2,4
    bltu r2, r3, 0b
  800274:	10fffd36 	bltu	r2,r3,80026c <_start+0x34>
     * section aren't defined until alt_load() has been called).
     */
    mov   et, zero
#endif

    call alt_load
  800278:	08104540 	call	810454 <alt_load>

    /* Log that alt_main is about to be called. */
    ALT_LOG_PUTS(alt_log_msg_alt_main)

    /* Call the C entry point. It should never return. */
    call alt_main
  80027c:	08105f40 	call	8105f4 <alt_main>

00800280 <alt_after_alt_main>:

    /* Wait in infinite loop in case alt_main does return. */
alt_after_alt_main:
    br alt_after_alt_main
  800280:	003fff06 	br	800280 <alt_after_alt_main>

00800284 <generateVector>:

// test case 3
#define step 1/1024.0
#define N 261121

void generateVector(float x[N]) {
  800284:	defffb04 	addi	sp,sp,-20
  800288:	dfc00415 	stw	ra,16(sp)
  80028c:	df000315 	stw	fp,12(sp)
  800290:	dc000215 	stw	r16,8(sp)
  800294:	df000304 	addi	fp,sp,12
  800298:	e13ffd15 	stw	r4,-12(fp)
  int i;
  x[0] = 0;
  80029c:	e0bffd17 	ldw	r2,-12(fp)
  8002a0:	10000015 	stw	zero,0(r2)
  for (i = 1; i < N; i++) {
  8002a4:	00800044 	movi	r2,1
  8002a8:	e0bffe15 	stw	r2,-8(fp)
  8002ac:	00001406 	br	800300 <generateVector+0x7c>
    x[i] = x[i-1] + step; // step through, generates 0, step, 2*step, 3*step, ..., N-1*step
  8002b0:	e0fffe17 	ldw	r3,-8(fp)
  8002b4:	00900034 	movhi	r2,16384
  8002b8:	10bfffc4 	addi	r2,r2,-1
  8002bc:	1885883a 	add	r2,r3,r2
  8002c0:	100490ba 	slli	r2,r2,2
  8002c4:	e0fffd17 	ldw	r3,-12(fp)
  8002c8:	1885883a 	add	r2,r3,r2
  8002cc:	11000017 	ldw	r4,0(r2)
  8002d0:	e0bffe17 	ldw	r2,-8(fp)
  8002d4:	100490ba 	slli	r2,r2,2
  8002d8:	e0fffd17 	ldw	r3,-12(fp)
  8002dc:	18a1883a 	add	r16,r3,r2
  8002e0:	014ea034 	movhi	r5,14976
  8002e4:	08028100 	call	802810 <__addsf3>
  8002e8:	1007883a 	mov	r3,r2
  8002ec:	1805883a 	mov	r2,r3
  8002f0:	80800015 	stw	r2,0(r16)
  for (i = 1; i < N; i++) {
  8002f4:	e0bffe17 	ldw	r2,-8(fp)
  8002f8:	10800044 	addi	r2,r2,1
  8002fc:	e0bffe15 	stw	r2,-8(fp)
  800300:	e0fffe17 	ldw	r3,-8(fp)
  800304:	00800134 	movhi	r2,4
  800308:	10bf0004 	addi	r2,r2,-1024
  80030c:	10ffe80e 	bge	r2,r3,8002b0 <generateVector+0x2c>
  }
}
  800310:	0001883a 	nop
  800314:	0001883a 	nop
  800318:	e6ffff04 	addi	sp,fp,-4
  80031c:	dfc00217 	ldw	ra,8(sp)
  800320:	df000117 	ldw	fp,4(sp)
  800324:	dc000017 	ldw	r16,0(sp)
  800328:	dec00304 	addi	sp,sp,12
  80032c:	f800283a 	ret

00800330 <sumVector>:


float sumVector(float x[], int M) {
  800330:	defff404 	addi	sp,sp,-48
  800334:	dfc00b15 	stw	ra,44(sp)
  800338:	df000a15 	stw	fp,40(sp)
  80033c:	dd400915 	stw	r21,36(sp)
  800340:	dd000815 	stw	r20,32(sp)
  800344:	dcc00715 	stw	r19,28(sp)
  800348:	dc800615 	stw	r18,24(sp)
  80034c:	dc400515 	stw	r17,20(sp)
  800350:	dc000415 	stw	r16,16(sp)
  800354:	df000a04 	addi	fp,sp,40
  800358:	e13ff715 	stw	r4,-36(fp)
  80035c:	e17ff615 	stw	r5,-40(fp)
  size_t i = 0;
  800360:	e03ff915 	stw	zero,-28(fp)
  float total = 0;
  800364:	e03ff815 	stw	zero,-32(fp)
  for (i = 0; i < M; i++) {
  800368:	e03ff915 	stw	zero,-28(fp)
  80036c:	00006b06 	br	80051c <sumVector+0x1ec>
    total += 0.5*(x[i]) + (x[i]*x[i]*cos((x[i]-128.0)/128.0));
  800370:	e13ff817 	ldw	r4,-32(fp)
  800374:	080569c0 	call	80569c <__extendsfdf2>
  800378:	1021883a 	mov	r16,r2
  80037c:	1823883a 	mov	r17,r3
  800380:	e0bff917 	ldw	r2,-28(fp)
  800384:	100490ba 	slli	r2,r2,2
  800388:	e0fff717 	ldw	r3,-36(fp)
  80038c:	1885883a 	add	r2,r3,r2
  800390:	10c00017 	ldw	r3,0(r2)
  800394:	1809883a 	mov	r4,r3
  800398:	080569c0 	call	80569c <__extendsfdf2>
  80039c:	1011883a 	mov	r8,r2
  8003a0:	1813883a 	mov	r9,r3
  8003a4:	000d883a 	mov	r6,zero
  8003a8:	01cff834 	movhi	r7,16352
  8003ac:	4009883a 	mov	r4,r8
  8003b0:	480b883a 	mov	r5,r9
  8003b4:	08044840 	call	804484 <__muldf3>
  8003b8:	1009883a 	mov	r4,r2
  8003bc:	180b883a 	mov	r5,r3
  8003c0:	2025883a 	mov	r18,r4
  8003c4:	2827883a 	mov	r19,r5
  8003c8:	e0bff917 	ldw	r2,-28(fp)
  8003cc:	100490ba 	slli	r2,r2,2
  8003d0:	e0fff717 	ldw	r3,-36(fp)
  8003d4:	1885883a 	add	r2,r3,r2
  8003d8:	11000017 	ldw	r4,0(r2)
  8003dc:	e0bff917 	ldw	r2,-28(fp)
  8003e0:	100490ba 	slli	r2,r2,2
  8003e4:	e0fff717 	ldw	r3,-36(fp)
  8003e8:	1885883a 	add	r2,r3,r2
  8003ec:	10c00017 	ldw	r3,0(r2)
  8003f0:	180b883a 	mov	r5,r3
  8003f4:	0802c6c0 	call	802c6c <__mulsf3>
  8003f8:	1007883a 	mov	r3,r2
  8003fc:	1805883a 	mov	r2,r3
  800400:	1009883a 	mov	r4,r2
  800404:	080569c0 	call	80569c <__extendsfdf2>
  800408:	1029883a 	mov	r20,r2
  80040c:	182b883a 	mov	r21,r3
  800410:	e0bff917 	ldw	r2,-28(fp)
  800414:	100490ba 	slli	r2,r2,2
  800418:	e0fff717 	ldw	r3,-36(fp)
  80041c:	1885883a 	add	r2,r3,r2
  800420:	10c00017 	ldw	r3,0(r2)
  800424:	1809883a 	mov	r4,r3
  800428:	080569c0 	call	80569c <__extendsfdf2>
  80042c:	1011883a 	mov	r8,r2
  800430:	1813883a 	mov	r9,r3
  800434:	000d883a 	mov	r6,zero
  800438:	01d01834 	movhi	r7,16480
  80043c:	4009883a 	mov	r4,r8
  800440:	480b883a 	mov	r5,r9
  800444:	0804c2c0 	call	804c2c <__subdf3>
  800448:	1009883a 	mov	r4,r2
  80044c:	180b883a 	mov	r5,r3
  800450:	2005883a 	mov	r2,r4
  800454:	2807883a 	mov	r3,r5
  800458:	000d883a 	mov	r6,zero
  80045c:	01d01834 	movhi	r7,16480
  800460:	1009883a 	mov	r4,r2
  800464:	180b883a 	mov	r5,r3
  800468:	08039e00 	call	8039e0 <__divdf3>
  80046c:	1009883a 	mov	r4,r2
  800470:	180b883a 	mov	r5,r3
  800474:	2005883a 	mov	r2,r4
  800478:	2807883a 	mov	r3,r5
  80047c:	1009883a 	mov	r4,r2
  800480:	180b883a 	mov	r5,r3
  800484:	08006640 	call	800664 <cos>
  800488:	1009883a 	mov	r4,r2
  80048c:	180b883a 	mov	r5,r3
  800490:	200d883a 	mov	r6,r4
  800494:	280f883a 	mov	r7,r5
  800498:	a009883a 	mov	r4,r20
  80049c:	a80b883a 	mov	r5,r21
  8004a0:	08044840 	call	804484 <__muldf3>
  8004a4:	1009883a 	mov	r4,r2
  8004a8:	180b883a 	mov	r5,r3
  8004ac:	2005883a 	mov	r2,r4
  8004b0:	2807883a 	mov	r3,r5
  8004b4:	100d883a 	mov	r6,r2
  8004b8:	180f883a 	mov	r7,r3
  8004bc:	9009883a 	mov	r4,r18
  8004c0:	980b883a 	mov	r5,r19
  8004c4:	08030680 	call	803068 <__adddf3>
  8004c8:	1009883a 	mov	r4,r2
  8004cc:	180b883a 	mov	r5,r3
  8004d0:	2005883a 	mov	r2,r4
  8004d4:	2807883a 	mov	r3,r5
  8004d8:	100d883a 	mov	r6,r2
  8004dc:	180f883a 	mov	r7,r3
  8004e0:	8009883a 	mov	r4,r16
  8004e4:	880b883a 	mov	r5,r17
  8004e8:	08030680 	call	803068 <__adddf3>
  8004ec:	1009883a 	mov	r4,r2
  8004f0:	180b883a 	mov	r5,r3
  8004f4:	2005883a 	mov	r2,r4
  8004f8:	2807883a 	mov	r3,r5
  8004fc:	1009883a 	mov	r4,r2
  800500:	180b883a 	mov	r5,r3
  800504:	08057980 	call	805798 <__truncdfsf2>
  800508:	1007883a 	mov	r3,r2
  80050c:	e0fff815 	stw	r3,-32(fp)
  for (i = 0; i < M; i++) {
  800510:	e0bff917 	ldw	r2,-28(fp)
  800514:	10800044 	addi	r2,r2,1
  800518:	e0bff915 	stw	r2,-28(fp)
  80051c:	e0bff617 	ldw	r2,-40(fp)
  800520:	e0fff917 	ldw	r3,-28(fp)
  800524:	18bf9236 	bltu	r3,r2,800370 <sumVector+0x40>
  }
  return total;
  800528:	e0bff817 	ldw	r2,-32(fp)
  80052c:	1007883a 	mov	r3,r2
}
  800530:	1805883a 	mov	r2,r3
  800534:	e6fffa04 	addi	sp,fp,-24
  800538:	dfc00717 	ldw	ra,28(sp)
  80053c:	df000617 	ldw	fp,24(sp)
  800540:	dd400517 	ldw	r21,20(sp)
  800544:	dd000417 	ldw	r20,16(sp)
  800548:	dcc00317 	ldw	r19,12(sp)
  80054c:	dc800217 	ldw	r18,8(sp)
  800550:	dc400117 	ldw	r17,4(sp)
  800554:	dc000017 	ldw	r16,0(sp)
  800558:	dec00804 	addi	sp,sp,32
  80055c:	f800283a 	ret

00800560 <main>:


int main()
{
  800560:	defffe04 	addi	sp,sp,-8
  800564:	dfc00115 	stw	ra,4(sp)
  800568:	df000015 	stw	fp,0(sp)
  80056c:	d839883a 	mov	fp,sp
  800570:	023ffc34 	movhi	r8,65520
  800574:	4203fb04 	addi	r8,r8,4076
  800578:	da37883a 	add	sp,sp,r8
	printf("----------------------\n");
  80057c:	01002074 	movhi	r4,129
  800580:	210a3604 	addi	r4,r4,10456
  800584:	0805ab80 	call	805ab8 <puts>
	printf("Task 4\n");
  800588:	01002074 	movhi	r4,129
  80058c:	210a3c04 	addi	r4,r4,10480
  800590:	0805ab80 	call	805ab8 <puts>
	printf("Params: N = %d, ", N);
  800594:	01400134 	movhi	r5,4
  800598:	297f0044 	addi	r5,r5,-1023
  80059c:	01002074 	movhi	r4,129
  8005a0:	210a3e04 	addi	r4,r4,10488
  8005a4:	08059b40 	call	8059b4 <printf>
	printf("s = %f\n", step);
  8005a8:	000b883a 	mov	r5,zero
  8005ac:	018fd434 	movhi	r6,16208
  8005b0:	01002074 	movhi	r4,129
  8005b4:	210a4304 	addi	r4,r4,10508
  8005b8:	08059b40 	call	8059b4 <printf>
	float x[N]; ///< input vector
	float y; ///< output of sumVector function
	clock_t exec_t1;
	clock_t exec_t2;

	generateVector(x); // generate input vector
  8005bc:	00bffc34 	movhi	r2,65520
  8005c0:	1083fb04 	addi	r2,r2,4076
  8005c4:	e085883a 	add	r2,fp,r2
  8005c8:	1009883a 	mov	r4,r2
  8005cc:	08002840 	call	800284 <generateVector>

	/*********************************************/
	exec_t1 = times(NULL);
  8005d0:	0009883a 	mov	r4,zero
  8005d4:	08109600 	call	810960 <times>
  8005d8:	e0bfff15 	stw	r2,-4(fp)

//	for (int i = 0; i < 1000; i++) {
	y = sumVector(x, N);
  8005dc:	00bffc34 	movhi	r2,65520
  8005e0:	1083fb04 	addi	r2,r2,4076
  8005e4:	e085883a 	add	r2,fp,r2
  8005e8:	01400134 	movhi	r5,4
  8005ec:	297f0044 	addi	r5,r5,-1023
  8005f0:	1009883a 	mov	r4,r2
  8005f4:	08003300 	call	800330 <sumVector>
  8005f8:	e0bffe15 	stw	r2,-8(fp)
//	}

	exec_t2 = times(NULL);
  8005fc:	0009883a 	mov	r4,zero
  800600:	08109600 	call	810960 <times>
  800604:	e0bffd15 	stw	r2,-12(fp)
	/*********************************************/

	clock_t res = (exec_t2 - exec_t1);
  800608:	e0fffd17 	ldw	r3,-12(fp)
  80060c:	e0bfff17 	ldw	r2,-4(fp)
  800610:	1885c83a 	sub	r2,r3,r2
  800614:	e0bffc15 	stw	r2,-16(fp)

	printf("Ticks elapsed (1 run): %lu \n", res);
  800618:	e17ffc17 	ldw	r5,-16(fp)
  80061c:	01002074 	movhi	r4,129
  800620:	210a4504 	addi	r4,r4,10516
  800624:	08059b40 	call	8059b4 <printf>
	printf("Answer: %f\n", y);
  800628:	e13ffe17 	ldw	r4,-8(fp)
  80062c:	080569c0 	call	80569c <__extendsfdf2>
  800630:	100d883a 	mov	r6,r2
  800634:	180f883a 	mov	r7,r3
  800638:	300b883a 	mov	r5,r6
  80063c:	380d883a 	mov	r6,r7
  800640:	01002074 	movhi	r4,129
  800644:	210a4d04 	addi	r4,r4,10548
  800648:	08059b40 	call	8059b4 <printf>

	return 0;
  80064c:	0005883a 	mov	r2,zero
}
  800650:	e037883a 	mov	sp,fp
  800654:	dfc00117 	ldw	ra,4(sp)
  800658:	df000017 	ldw	fp,0(sp)
  80065c:	dec00204 	addi	sp,sp,8
  800660:	f800283a 	ret

00800664 <cos>:
  800664:	00a00034 	movhi	r2,32768
  800668:	defffa04 	addi	sp,sp,-24
  80066c:	10bfffc4 	addi	r2,r2,-1
  800670:	00cffa74 	movhi	r3,16361
  800674:	dfc00515 	stw	ra,20(sp)
  800678:	2884703a 	and	r2,r5,r2
  80067c:	18c87ec4 	addi	r3,r3,8699
  800680:	1880180e 	bge	r3,r2,8006e4 <cos+0x80>
  800684:	00dffc34 	movhi	r3,32752
  800688:	10c00616 	blt	r2,r3,8006a4 <cos+0x40>
  80068c:	280f883a 	mov	r7,r5
  800690:	200d883a 	mov	r6,r4
  800694:	0804c2c0 	call	804c2c <__subdf3>
  800698:	dfc00517 	ldw	ra,20(sp)
  80069c:	dec00604 	addi	sp,sp,24
  8006a0:	f800283a 	ret
  8006a4:	d9800104 	addi	r6,sp,4
  8006a8:	08007200 	call	800720 <__ieee754_rem_pio2>
  8006ac:	108000cc 	andi	r2,r2,3
  8006b0:	10c00060 	cmpeqi	r3,r2,1
  8006b4:	d9800317 	ldw	r6,12(sp)
  8006b8:	d9c00417 	ldw	r7,16(sp)
  8006bc:	d9000117 	ldw	r4,4(sp)
  8006c0:	d9400217 	ldw	r5,8(sp)
  8006c4:	18000d1e 	bne	r3,zero,8006fc <cos+0x98>
  8006c8:	10c000a0 	cmpeqi	r3,r2,2
  8006cc:	1800111e 	bne	r3,zero,800714 <cos+0xb0>
  8006d0:	10000e26 	beq	r2,zero,80070c <cos+0xa8>
  8006d4:	00800044 	movi	r2,1
  8006d8:	d8800015 	stw	r2,0(sp)
  8006dc:	0801ff00 	call	801ff0 <__kernel_sin>
  8006e0:	003fed06 	br	800698 <cos+0x34>
  8006e4:	000d883a 	mov	r6,zero
  8006e8:	000f883a 	mov	r7,zero
  8006ec:	0800e6c0 	call	800e6c <__kernel_cos>
  8006f0:	dfc00517 	ldw	ra,20(sp)
  8006f4:	dec00604 	addi	sp,sp,24
  8006f8:	f800283a 	ret
  8006fc:	d8800015 	stw	r2,0(sp)
  800700:	0801ff00 	call	801ff0 <__kernel_sin>
  800704:	18e0003c 	xorhi	r3,r3,32768
  800708:	003fe306 	br	800698 <cos+0x34>
  80070c:	0800e6c0 	call	800e6c <__kernel_cos>
  800710:	003fe106 	br	800698 <cos+0x34>
  800714:	0800e6c0 	call	800e6c <__kernel_cos>
  800718:	18e0003c 	xorhi	r3,r3,32768
  80071c:	003fde06 	br	800698 <cos+0x34>

00800720 <__ieee754_rem_pio2>:
  800720:	deffea04 	addi	sp,sp,-88
  800724:	dc000c15 	stw	r16,48(sp)
  800728:	04200034 	movhi	r16,32768
  80072c:	843fffc4 	addi	r16,r16,-1
  800730:	008ffa74 	movhi	r2,16361
  800734:	dcc00f15 	stw	r19,60(sp)
  800738:	dc800e15 	stw	r18,56(sp)
  80073c:	dc400d15 	stw	r17,52(sp)
  800740:	dfc01515 	stw	ra,84(sp)
  800744:	df001415 	stw	fp,80(sp)
  800748:	ddc01315 	stw	r23,76(sp)
  80074c:	dd801215 	stw	r22,72(sp)
  800750:	dd401115 	stw	r21,68(sp)
  800754:	dd001015 	stw	r20,64(sp)
  800758:	2c20703a 	and	r16,r5,r16
  80075c:	10887ec4 	addi	r2,r2,8699
  800760:	2825883a 	mov	r18,r5
  800764:	2027883a 	mov	r19,r4
  800768:	3023883a 	mov	r17,r6
  80076c:	14008b0e 	bge	r2,r16,80099c <__ieee754_rem_pio2+0x27c>
  800770:	009000f4 	movhi	r2,16387
  800774:	10b65ec4 	addi	r2,r2,-9861
  800778:	14002f16 	blt	r2,r16,800838 <__ieee754_rem_pio2+0x118>
  80077c:	01cffe74 	movhi	r7,16377
  800780:	01951034 	movhi	r6,21568
  800784:	39c87ec4 	addi	r7,r7,8699
  800788:	01417e0e 	bge	zero,r5,800d84 <__ieee754_rem_pio2+0x664>
  80078c:	0804c2c0 	call	804c2c <__subdf3>
  800790:	018ffe74 	movhi	r6,16377
  800794:	31887ec4 	addi	r6,r6,8699
  800798:	1009883a 	mov	r4,r2
  80079c:	180b883a 	mov	r5,r3
  8007a0:	8180cb26 	beq	r16,r6,800ad0 <__ieee754_rem_pio2+0x3b0>
  8007a4:	018698b4 	movhi	r6,6754
  8007a8:	01cf7474 	movhi	r7,15825
  8007ac:	3198cc44 	addi	r6,r6,25393
  8007b0:	39ed1844 	addi	r7,r7,-19359
  8007b4:	d8800315 	stw	r2,12(sp)
  8007b8:	d8c00215 	stw	r3,8(sp)
  8007bc:	0804c2c0 	call	804c2c <__subdf3>
  8007c0:	d9000317 	ldw	r4,12(sp)
  8007c4:	d9400217 	ldw	r5,8(sp)
  8007c8:	100d883a 	mov	r6,r2
  8007cc:	180f883a 	mov	r7,r3
  8007d0:	88800015 	stw	r2,0(r17)
  8007d4:	88c00115 	stw	r3,4(r17)
  8007d8:	0804c2c0 	call	804c2c <__subdf3>
  8007dc:	018698b4 	movhi	r6,6754
  8007e0:	01cf7474 	movhi	r7,15825
  8007e4:	3198cc44 	addi	r6,r6,25393
  8007e8:	39ed1844 	addi	r7,r7,-19359
  8007ec:	1009883a 	mov	r4,r2
  8007f0:	180b883a 	mov	r5,r3
  8007f4:	0804c2c0 	call	804c2c <__subdf3>
  8007f8:	88800215 	stw	r2,8(r17)
  8007fc:	88c00315 	stw	r3,12(r17)
  800800:	05000044 	movi	r20,1
  800804:	a005883a 	mov	r2,r20
  800808:	dfc01517 	ldw	ra,84(sp)
  80080c:	df001417 	ldw	fp,80(sp)
  800810:	ddc01317 	ldw	r23,76(sp)
  800814:	dd801217 	ldw	r22,72(sp)
  800818:	dd401117 	ldw	r21,68(sp)
  80081c:	dd001017 	ldw	r20,64(sp)
  800820:	dcc00f17 	ldw	r19,60(sp)
  800824:	dc800e17 	ldw	r18,56(sp)
  800828:	dc400d17 	ldw	r17,52(sp)
  80082c:	dc000c17 	ldw	r16,48(sp)
  800830:	dec01604 	addi	sp,sp,88
  800834:	f800283a 	ret
  800838:	00904e74 	movhi	r2,16697
  80083c:	10887ec4 	addi	r2,r2,8699
  800840:	14005c16 	blt	r2,r16,8009b4 <__ieee754_rem_pio2+0x294>
  800844:	019b72b4 	movhi	r6,28106
  800848:	01cff934 	movhi	r7,16356
  80084c:	31b220c4 	addi	r6,r6,-14205
  800850:	39d7cc04 	addi	r7,r7,24368
  800854:	800b883a 	mov	r5,r16
  800858:	08044840 	call	804484 <__muldf3>
  80085c:	000d883a 	mov	r6,zero
  800860:	01cff834 	movhi	r7,16352
  800864:	1009883a 	mov	r4,r2
  800868:	180b883a 	mov	r5,r3
  80086c:	08030680 	call	803068 <__adddf3>
  800870:	180b883a 	mov	r5,r3
  800874:	1009883a 	mov	r4,r2
  800878:	08055600 	call	805560 <__fixdfsi>
  80087c:	1009883a 	mov	r4,r2
  800880:	1029883a 	mov	r20,r2
  800884:	08055e00 	call	8055e0 <__floatsidf>
  800888:	01cffe74 	movhi	r7,16377
  80088c:	01951034 	movhi	r6,21568
  800890:	39c87ec4 	addi	r7,r7,8699
  800894:	1009883a 	mov	r4,r2
  800898:	180b883a 	mov	r5,r3
  80089c:	102d883a 	mov	r22,r2
  8008a0:	182b883a 	mov	r21,r3
  8008a4:	08044840 	call	804484 <__muldf3>
  8008a8:	9809883a 	mov	r4,r19
  8008ac:	100d883a 	mov	r6,r2
  8008b0:	180f883a 	mov	r7,r3
  8008b4:	800b883a 	mov	r5,r16
  8008b8:	0804c2c0 	call	804c2c <__subdf3>
  8008bc:	018698b4 	movhi	r6,6754
  8008c0:	01cf7474 	movhi	r7,15825
  8008c4:	3198cc44 	addi	r6,r6,25393
  8008c8:	39ed1844 	addi	r7,r7,-19359
  8008cc:	b009883a 	mov	r4,r22
  8008d0:	a80b883a 	mov	r5,r21
  8008d4:	1039883a 	mov	fp,r2
  8008d8:	d8c00215 	stw	r3,8(sp)
  8008dc:	08044840 	call	804484 <__muldf3>
  8008e0:	dac00217 	ldw	r11,8(sp)
  8008e4:	e009883a 	mov	r4,fp
  8008e8:	100d883a 	mov	r6,r2
  8008ec:	580b883a 	mov	r5,r11
  8008f0:	180f883a 	mov	r7,r3
  8008f4:	dac00315 	stw	r11,12(sp)
  8008f8:	102f883a 	mov	r23,r2
  8008fc:	1827883a 	mov	r19,r3
  800900:	df000415 	stw	fp,16(sp)
  800904:	0804c2c0 	call	804c2c <__subdf3>
  800908:	a1000808 	cmpgei	r4,r20,32
  80090c:	dac00317 	ldw	r11,12(sp)
  800910:	db000417 	ldw	r12,16(sp)
  800914:	1015883a 	mov	r10,r2
  800918:	1813883a 	mov	r9,r3
  80091c:	2000851e 	bne	r4,zero,800b34 <__ieee754_rem_pio2+0x414>
  800920:	a00a90ba 	slli	r5,r20,2
  800924:	01002074 	movhi	r4,129
  800928:	2909883a 	add	r4,r5,r4
  80092c:	210a4f17 	ldw	r4,10556(r4)
  800930:	24008026 	beq	r4,r16,800b34 <__ieee754_rem_pio2+0x414>
  800934:	88800015 	stw	r2,0(r17)
  800938:	88c00115 	stw	r3,4(r17)
  80093c:	500d883a 	mov	r6,r10
  800940:	480f883a 	mov	r7,r9
  800944:	6009883a 	mov	r4,r12
  800948:	580b883a 	mov	r5,r11
  80094c:	da800315 	stw	r10,12(sp)
  800950:	da400215 	stw	r9,8(sp)
  800954:	0804c2c0 	call	804c2c <__subdf3>
  800958:	b80d883a 	mov	r6,r23
  80095c:	980f883a 	mov	r7,r19
  800960:	1009883a 	mov	r4,r2
  800964:	180b883a 	mov	r5,r3
  800968:	0804c2c0 	call	804c2c <__subdf3>
  80096c:	88800215 	stw	r2,8(r17)
  800970:	88c00315 	stw	r3,12(r17)
  800974:	903fa30e 	bge	r18,zero,800804 <__ieee754_rem_pio2+0xe4>
  800978:	da400217 	ldw	r9,8(sp)
  80097c:	da800317 	ldw	r10,12(sp)
  800980:	18e0003c 	xorhi	r3,r3,32768
  800984:	4a60003c 	xorhi	r9,r9,32768
  800988:	8a800015 	stw	r10,0(r17)
  80098c:	8a400115 	stw	r9,4(r17)
  800990:	88c00315 	stw	r3,12(r17)
  800994:	0529c83a 	sub	r20,zero,r20
  800998:	003f9a06 	br	800804 <__ieee754_rem_pio2+0xe4>
  80099c:	89000015 	stw	r4,0(r17)
  8009a0:	89400115 	stw	r5,4(r17)
  8009a4:	30000215 	stw	zero,8(r6)
  8009a8:	30000315 	stw	zero,12(r6)
  8009ac:	0029883a 	mov	r20,zero
  8009b0:	003f9406 	br	800804 <__ieee754_rem_pio2+0xe4>
  8009b4:	009ffc34 	movhi	r2,32752
  8009b8:	8080670e 	bge	r16,r2,800b58 <__ieee754_rem_pio2+0x438>
  8009bc:	8029d53a 	srai	r20,r16,20
  8009c0:	a53efa84 	addi	r20,r20,-1046
  8009c4:	a00a953a 	slli	r5,r20,20
  8009c8:	8161c83a 	sub	r16,r16,r5
  8009cc:	800b883a 	mov	r5,r16
  8009d0:	08055600 	call	805560 <__fixdfsi>
  8009d4:	1009883a 	mov	r4,r2
  8009d8:	08055e00 	call	8055e0 <__floatsidf>
  8009dc:	9809883a 	mov	r4,r19
  8009e0:	800b883a 	mov	r5,r16
  8009e4:	100d883a 	mov	r6,r2
  8009e8:	180f883a 	mov	r7,r3
  8009ec:	d8800615 	stw	r2,24(sp)
  8009f0:	d8c00715 	stw	r3,28(sp)
  8009f4:	0804c2c0 	call	804c2c <__subdf3>
  8009f8:	000d883a 	mov	r6,zero
  8009fc:	01d05c34 	movhi	r7,16752
  800a00:	1009883a 	mov	r4,r2
  800a04:	180b883a 	mov	r5,r3
  800a08:	08044840 	call	804484 <__muldf3>
  800a0c:	180b883a 	mov	r5,r3
  800a10:	1009883a 	mov	r4,r2
  800a14:	1821883a 	mov	r16,r3
  800a18:	1027883a 	mov	r19,r2
  800a1c:	08055600 	call	805560 <__fixdfsi>
  800a20:	1009883a 	mov	r4,r2
  800a24:	102b883a 	mov	r21,r2
  800a28:	08055e00 	call	8055e0 <__floatsidf>
  800a2c:	100d883a 	mov	r6,r2
  800a30:	180f883a 	mov	r7,r3
  800a34:	9809883a 	mov	r4,r19
  800a38:	800b883a 	mov	r5,r16
  800a3c:	d8800815 	stw	r2,32(sp)
  800a40:	d8c00915 	stw	r3,36(sp)
  800a44:	0804c2c0 	call	804c2c <__subdf3>
  800a48:	000d883a 	mov	r6,zero
  800a4c:	01d05c34 	movhi	r7,16752
  800a50:	1009883a 	mov	r4,r2
  800a54:	180b883a 	mov	r5,r3
  800a58:	08044840 	call	804484 <__muldf3>
  800a5c:	1009883a 	mov	r4,r2
  800a60:	180b883a 	mov	r5,r3
  800a64:	000d883a 	mov	r6,zero
  800a68:	000f883a 	mov	r7,zero
  800a6c:	d8800a15 	stw	r2,40(sp)
  800a70:	d8c00b15 	stw	r3,44(sp)
  800a74:	08043140 	call	804314 <__eqdf2>
  800a78:	1000c01e 	bne	r2,zero,800d7c <__ieee754_rem_pio2+0x65c>
  800a7c:	a800bd1e 	bne	r21,zero,800d74 <__ieee754_rem_pio2+0x654>
  800a80:	01c00044 	movi	r7,1
  800a84:	00802074 	movhi	r2,129
  800a88:	108a7004 	addi	r2,r2,10688
  800a8c:	d8800115 	stw	r2,4(sp)
  800a90:	00800084 	movi	r2,2
  800a94:	a00d883a 	mov	r6,r20
  800a98:	d8800015 	stw	r2,0(sp)
  800a9c:	880b883a 	mov	r5,r17
  800aa0:	d9000604 	addi	r4,sp,24
  800aa4:	08013180 	call	801318 <__kernel_rem_pio2>
  800aa8:	1029883a 	mov	r20,r2
  800aac:	903f550e 	bge	r18,zero,800804 <__ieee754_rem_pio2+0xe4>
  800ab0:	88c00117 	ldw	r3,4(r17)
  800ab4:	88800317 	ldw	r2,12(r17)
  800ab8:	0529c83a 	sub	r20,zero,r20
  800abc:	18e0003c 	xorhi	r3,r3,32768
  800ac0:	10a0003c 	xorhi	r2,r2,32768
  800ac4:	88c00115 	stw	r3,4(r17)
  800ac8:	88800315 	stw	r2,12(r17)
  800acc:	003f4d06 	br	800804 <__ieee754_rem_pio2+0xe4>
  800ad0:	01cf7474 	movhi	r7,15825
  800ad4:	01869834 	movhi	r6,6752
  800ad8:	39ed1844 	addi	r7,r7,-19359
  800adc:	0804c2c0 	call	804c2c <__subdf3>
  800ae0:	018b80f4 	movhi	r6,11779
  800ae4:	01cee8f4 	movhi	r7,15267
  800ae8:	319c1cc4 	addi	r6,r6,28787
  800aec:	39c66284 	addi	r7,r7,6538
  800af0:	1009883a 	mov	r4,r2
  800af4:	180b883a 	mov	r5,r3
  800af8:	1025883a 	mov	r18,r2
  800afc:	1821883a 	mov	r16,r3
  800b00:	0804c2c0 	call	804c2c <__subdf3>
  800b04:	100d883a 	mov	r6,r2
  800b08:	180f883a 	mov	r7,r3
  800b0c:	9009883a 	mov	r4,r18
  800b10:	800b883a 	mov	r5,r16
  800b14:	88800015 	stw	r2,0(r17)
  800b18:	88c00115 	stw	r3,4(r17)
  800b1c:	0804c2c0 	call	804c2c <__subdf3>
  800b20:	018b80f4 	movhi	r6,11779
  800b24:	01cee8f4 	movhi	r7,15267
  800b28:	319c1cc4 	addi	r6,r6,28787
  800b2c:	39c66284 	addi	r7,r7,6538
  800b30:	003f2e06 	br	8007ec <__ieee754_rem_pio2+0xcc>
  800b34:	1808d53a 	srli	r4,r3,20
  800b38:	8021d53a 	srai	r16,r16,20
  800b3c:	2101ffcc 	andi	r4,r4,2047
  800b40:	8109c83a 	sub	r4,r16,r4
  800b44:	21000448 	cmpgei	r4,r4,17
  800b48:	20000c1e 	bne	r4,zero,800b7c <__ieee754_rem_pio2+0x45c>
  800b4c:	88800015 	stw	r2,0(r17)
  800b50:	88c00115 	stw	r3,4(r17)
  800b54:	003f7906 	br	80093c <__ieee754_rem_pio2+0x21c>
  800b58:	200d883a 	mov	r6,r4
  800b5c:	280f883a 	mov	r7,r5
  800b60:	0804c2c0 	call	804c2c <__subdf3>
  800b64:	88800215 	stw	r2,8(r17)
  800b68:	88c00315 	stw	r3,12(r17)
  800b6c:	88800015 	stw	r2,0(r17)
  800b70:	88c00115 	stw	r3,4(r17)
  800b74:	0029883a 	mov	r20,zero
  800b78:	003f2206 	br	800804 <__ieee754_rem_pio2+0xe4>
  800b7c:	01cf7474 	movhi	r7,15825
  800b80:	01869834 	movhi	r6,6752
  800b84:	39ed1844 	addi	r7,r7,-19359
  800b88:	b009883a 	mov	r4,r22
  800b8c:	a80b883a 	mov	r5,r21
  800b90:	08044840 	call	804484 <__muldf3>
  800b94:	d9400217 	ldw	r5,8(sp)
  800b98:	100d883a 	mov	r6,r2
  800b9c:	180f883a 	mov	r7,r3
  800ba0:	e009883a 	mov	r4,fp
  800ba4:	102f883a 	mov	r23,r2
  800ba8:	1827883a 	mov	r19,r3
  800bac:	0804c2c0 	call	804c2c <__subdf3>
  800bb0:	d9400217 	ldw	r5,8(sp)
  800bb4:	100d883a 	mov	r6,r2
  800bb8:	180f883a 	mov	r7,r3
  800bbc:	e009883a 	mov	r4,fp
  800bc0:	d8800315 	stw	r2,12(sp)
  800bc4:	d8c00415 	stw	r3,16(sp)
  800bc8:	0804c2c0 	call	804c2c <__subdf3>
  800bcc:	b80d883a 	mov	r6,r23
  800bd0:	980f883a 	mov	r7,r19
  800bd4:	1009883a 	mov	r4,r2
  800bd8:	180b883a 	mov	r5,r3
  800bdc:	0804c2c0 	call	804c2c <__subdf3>
  800be0:	018b80f4 	movhi	r6,11779
  800be4:	01cee8f4 	movhi	r7,15267
  800be8:	319c1cc4 	addi	r6,r6,28787
  800bec:	39c66284 	addi	r7,r7,6538
  800bf0:	b009883a 	mov	r4,r22
  800bf4:	a80b883a 	mov	r5,r21
  800bf8:	102f883a 	mov	r23,r2
  800bfc:	1827883a 	mov	r19,r3
  800c00:	08044840 	call	804484 <__muldf3>
  800c04:	b80d883a 	mov	r6,r23
  800c08:	980f883a 	mov	r7,r19
  800c0c:	1009883a 	mov	r4,r2
  800c10:	180b883a 	mov	r5,r3
  800c14:	0804c2c0 	call	804c2c <__subdf3>
  800c18:	db400417 	ldw	r13,16(sp)
  800c1c:	db800317 	ldw	r14,12(sp)
  800c20:	100d883a 	mov	r6,r2
  800c24:	680b883a 	mov	r5,r13
  800c28:	7009883a 	mov	r4,r14
  800c2c:	180f883a 	mov	r7,r3
  800c30:	db400215 	stw	r13,8(sp)
  800c34:	102f883a 	mov	r23,r2
  800c38:	1827883a 	mov	r19,r3
  800c3c:	0804c2c0 	call	804c2c <__subdf3>
  800c40:	1813883a 	mov	r9,r3
  800c44:	1806d53a 	srli	r3,r3,20
  800c48:	db400217 	ldw	r13,8(sp)
  800c4c:	db800317 	ldw	r14,12(sp)
  800c50:	18c1ffcc 	andi	r3,r3,2047
  800c54:	80e1c83a 	sub	r16,r16,r3
  800c58:	84000c88 	cmpgei	r16,r16,50
  800c5c:	1015883a 	mov	r10,r2
  800c60:	80003f26 	beq	r16,zero,800d60 <__ieee754_rem_pio2+0x640>
  800c64:	01cee8f4 	movhi	r7,15267
  800c68:	018b8034 	movhi	r6,11776
  800c6c:	39c66284 	addi	r7,r7,6538
  800c70:	b009883a 	mov	r4,r22
  800c74:	a80b883a 	mov	r5,r21
  800c78:	db400315 	stw	r13,12(sp)
  800c7c:	db800215 	stw	r14,8(sp)
  800c80:	08044840 	call	804484 <__muldf3>
  800c84:	db800217 	ldw	r14,8(sp)
  800c88:	db400317 	ldw	r13,12(sp)
  800c8c:	100d883a 	mov	r6,r2
  800c90:	7009883a 	mov	r4,r14
  800c94:	680b883a 	mov	r5,r13
  800c98:	180f883a 	mov	r7,r3
  800c9c:	1027883a 	mov	r19,r2
  800ca0:	1821883a 	mov	r16,r3
  800ca4:	db800515 	stw	r14,20(sp)
  800ca8:	db400415 	stw	r13,16(sp)
  800cac:	0804c2c0 	call	804c2c <__subdf3>
  800cb0:	db800517 	ldw	r14,20(sp)
  800cb4:	db400417 	ldw	r13,16(sp)
  800cb8:	100d883a 	mov	r6,r2
  800cbc:	7009883a 	mov	r4,r14
  800cc0:	680b883a 	mov	r5,r13
  800cc4:	180f883a 	mov	r7,r3
  800cc8:	d8800315 	stw	r2,12(sp)
  800ccc:	d8c00215 	stw	r3,8(sp)
  800cd0:	0804c2c0 	call	804c2c <__subdf3>
  800cd4:	980d883a 	mov	r6,r19
  800cd8:	800f883a 	mov	r7,r16
  800cdc:	1009883a 	mov	r4,r2
  800ce0:	180b883a 	mov	r5,r3
  800ce4:	0804c2c0 	call	804c2c <__subdf3>
  800ce8:	01894834 	movhi	r6,9504
  800cec:	01ce5f34 	movhi	r7,14716
  800cf0:	31927044 	addi	r6,r6,18881
  800cf4:	39e0e684 	addi	r7,r7,-31846
  800cf8:	b009883a 	mov	r4,r22
  800cfc:	a80b883a 	mov	r5,r21
  800d00:	1027883a 	mov	r19,r2
  800d04:	1821883a 	mov	r16,r3
  800d08:	08044840 	call	804484 <__muldf3>
  800d0c:	980d883a 	mov	r6,r19
  800d10:	800f883a 	mov	r7,r16
  800d14:	1009883a 	mov	r4,r2
  800d18:	180b883a 	mov	r5,r3
  800d1c:	0804c2c0 	call	804c2c <__subdf3>
  800d20:	db000317 	ldw	r12,12(sp)
  800d24:	dac00217 	ldw	r11,8(sp)
  800d28:	100d883a 	mov	r6,r2
  800d2c:	6009883a 	mov	r4,r12
  800d30:	580b883a 	mov	r5,r11
  800d34:	180f883a 	mov	r7,r3
  800d38:	102f883a 	mov	r23,r2
  800d3c:	1827883a 	mov	r19,r3
  800d40:	0804c2c0 	call	804c2c <__subdf3>
  800d44:	db000317 	ldw	r12,12(sp)
  800d48:	dac00217 	ldw	r11,8(sp)
  800d4c:	1015883a 	mov	r10,r2
  800d50:	1813883a 	mov	r9,r3
  800d54:	88800015 	stw	r2,0(r17)
  800d58:	88c00115 	stw	r3,4(r17)
  800d5c:	003ef706 	br	80093c <__ieee754_rem_pio2+0x21c>
  800d60:	88800015 	stw	r2,0(r17)
  800d64:	8a400115 	stw	r9,4(r17)
  800d68:	7019883a 	mov	r12,r14
  800d6c:	6817883a 	mov	r11,r13
  800d70:	003ef206 	br	80093c <__ieee754_rem_pio2+0x21c>
  800d74:	01c00084 	movi	r7,2
  800d78:	003f4206 	br	800a84 <__ieee754_rem_pio2+0x364>
  800d7c:	01c000c4 	movi	r7,3
  800d80:	003f4006 	br	800a84 <__ieee754_rem_pio2+0x364>
  800d84:	08030680 	call	803068 <__adddf3>
  800d88:	010ffe74 	movhi	r4,16377
  800d8c:	21087ec4 	addi	r4,r4,8699
  800d90:	1027883a 	mov	r19,r2
  800d94:	1825883a 	mov	r18,r3
  800d98:	81001926 	beq	r16,r4,800e00 <__ieee754_rem_pio2+0x6e0>
  800d9c:	018698b4 	movhi	r6,6754
  800da0:	01cf7474 	movhi	r7,15825
  800da4:	3198cc44 	addi	r6,r6,25393
  800da8:	39ed1844 	addi	r7,r7,-19359
  800dac:	1009883a 	mov	r4,r2
  800db0:	180b883a 	mov	r5,r3
  800db4:	08030680 	call	803068 <__adddf3>
  800db8:	100d883a 	mov	r6,r2
  800dbc:	180f883a 	mov	r7,r3
  800dc0:	9809883a 	mov	r4,r19
  800dc4:	900b883a 	mov	r5,r18
  800dc8:	88800015 	stw	r2,0(r17)
  800dcc:	88c00115 	stw	r3,4(r17)
  800dd0:	0804c2c0 	call	804c2c <__subdf3>
  800dd4:	018698b4 	movhi	r6,6754
  800dd8:	01cf7474 	movhi	r7,15825
  800ddc:	3198cc44 	addi	r6,r6,25393
  800de0:	39ed1844 	addi	r7,r7,-19359
  800de4:	1009883a 	mov	r4,r2
  800de8:	180b883a 	mov	r5,r3
  800dec:	08030680 	call	803068 <__adddf3>
  800df0:	88800215 	stw	r2,8(r17)
  800df4:	88c00315 	stw	r3,12(r17)
  800df8:	053fffc4 	movi	r20,-1
  800dfc:	003e8106 	br	800804 <__ieee754_rem_pio2+0xe4>
  800e00:	01cf7474 	movhi	r7,15825
  800e04:	01869834 	movhi	r6,6752
  800e08:	39ed1844 	addi	r7,r7,-19359
  800e0c:	1009883a 	mov	r4,r2
  800e10:	180b883a 	mov	r5,r3
  800e14:	08030680 	call	803068 <__adddf3>
  800e18:	018b80f4 	movhi	r6,11779
  800e1c:	01cee8f4 	movhi	r7,15267
  800e20:	319c1cc4 	addi	r6,r6,28787
  800e24:	39c66284 	addi	r7,r7,6538
  800e28:	1009883a 	mov	r4,r2
  800e2c:	180b883a 	mov	r5,r3
  800e30:	1025883a 	mov	r18,r2
  800e34:	1821883a 	mov	r16,r3
  800e38:	08030680 	call	803068 <__adddf3>
  800e3c:	100d883a 	mov	r6,r2
  800e40:	180f883a 	mov	r7,r3
  800e44:	9009883a 	mov	r4,r18
  800e48:	800b883a 	mov	r5,r16
  800e4c:	88800015 	stw	r2,0(r17)
  800e50:	88c00115 	stw	r3,4(r17)
  800e54:	0804c2c0 	call	804c2c <__subdf3>
  800e58:	018b80f4 	movhi	r6,11779
  800e5c:	01cee8f4 	movhi	r7,15267
  800e60:	319c1cc4 	addi	r6,r6,28787
  800e64:	39c66284 	addi	r7,r7,6538
  800e68:	003fde06 	br	800de4 <__ieee754_rem_pio2+0x6c4>

00800e6c <__kernel_cos>:
  800e6c:	defff204 	addi	sp,sp,-56
  800e70:	dc000415 	stw	r16,16(sp)
  800e74:	04200034 	movhi	r16,32768
  800e78:	843fffc4 	addi	r16,r16,-1
  800e7c:	df000c15 	stw	fp,48(sp)
  800e80:	ddc00b15 	stw	r23,44(sp)
  800e84:	dd800a15 	stw	r22,40(sp)
  800e88:	dd400915 	stw	r21,36(sp)
  800e8c:	dc800615 	stw	r18,24(sp)
  800e90:	dfc00d15 	stw	ra,52(sp)
  800e94:	dd000815 	stw	r20,32(sp)
  800e98:	dcc00715 	stw	r19,28(sp)
  800e9c:	dc400515 	stw	r17,20(sp)
  800ea0:	2c24703a 	and	r18,r5,r16
  800ea4:	008f9034 	movhi	r2,15936
  800ea8:	2839883a 	mov	fp,r5
  800eac:	202b883a 	mov	r21,r4
  800eb0:	302d883a 	mov	r22,r6
  800eb4:	382f883a 	mov	r23,r7
  800eb8:	9080750e 	bge	r18,r2,801090 <__kernel_cos+0x224>
  800ebc:	08055600 	call	805560 <__fixdfsi>
  800ec0:	10011226 	beq	r2,zero,80130c <__kernel_cos+0x4a0>
  800ec4:	a80d883a 	mov	r6,r21
  800ec8:	e00f883a 	mov	r7,fp
  800ecc:	a809883a 	mov	r4,r21
  800ed0:	e00b883a 	mov	r5,fp
  800ed4:	08044840 	call	804484 <__muldf3>
  800ed8:	01afa234 	movhi	r6,48776
  800edc:	01ef6a74 	movhi	r7,48553
  800ee0:	318e3504 	addi	r6,r6,14548
  800ee4:	39feba44 	addi	r7,r7,-1303
  800ee8:	1009883a 	mov	r4,r2
  800eec:	180b883a 	mov	r5,r3
  800ef0:	1023883a 	mov	r17,r2
  800ef4:	1821883a 	mov	r16,r3
  800ef8:	08044840 	call	804484 <__muldf3>
  800efc:	01af6d74 	movhi	r6,48565
  800f00:	01cf88b4 	movhi	r7,15906
  800f04:	31ac7104 	addi	r6,r6,-20028
  800f08:	39fba784 	addi	r7,r7,-4450
  800f0c:	1009883a 	mov	r4,r2
  800f10:	180b883a 	mov	r5,r3
  800f14:	08030680 	call	803068 <__adddf3>
  800f18:	880d883a 	mov	r6,r17
  800f1c:	800f883a 	mov	r7,r16
  800f20:	1009883a 	mov	r4,r2
  800f24:	180b883a 	mov	r5,r3
  800f28:	08044840 	call	804484 <__muldf3>
  800f2c:	01a02734 	movhi	r6,32924
  800f30:	01cfa4b4 	movhi	r7,16018
  800f34:	3194ab44 	addi	r6,r6,21165
  800f38:	39df93c4 	addi	r7,r7,32335
  800f3c:	1009883a 	mov	r4,r2
  800f40:	180b883a 	mov	r5,r3
  800f44:	0804c2c0 	call	804c2c <__subdf3>
  800f48:	880d883a 	mov	r6,r17
  800f4c:	800f883a 	mov	r7,r16
  800f50:	1009883a 	mov	r4,r2
  800f54:	180b883a 	mov	r5,r3
  800f58:	08044840 	call	804484 <__muldf3>
  800f5c:	018672f4 	movhi	r6,6603
  800f60:	01cfbeb4 	movhi	r7,16122
  800f64:	31856404 	addi	r6,r6,5520
  800f68:	39c06804 	addi	r7,r7,416
  800f6c:	1009883a 	mov	r4,r2
  800f70:	180b883a 	mov	r5,r3
  800f74:	08030680 	call	803068 <__adddf3>
  800f78:	880d883a 	mov	r6,r17
  800f7c:	800f883a 	mov	r7,r16
  800f80:	1009883a 	mov	r4,r2
  800f84:	180b883a 	mov	r5,r3
  800f88:	08044840 	call	804484 <__muldf3>
  800f8c:	0185b074 	movhi	r6,5825
  800f90:	01cfd5f4 	movhi	r7,16215
  800f94:	31945dc4 	addi	r6,r6,20855
  800f98:	39f05b04 	addi	r7,r7,-16020
  800f9c:	1009883a 	mov	r4,r2
  800fa0:	180b883a 	mov	r5,r3
  800fa4:	0804c2c0 	call	804c2c <__subdf3>
  800fa8:	880d883a 	mov	r6,r17
  800fac:	800f883a 	mov	r7,r16
  800fb0:	1009883a 	mov	r4,r2
  800fb4:	180b883a 	mov	r5,r3
  800fb8:	08044840 	call	804484 <__muldf3>
  800fbc:	01955574 	movhi	r6,21845
  800fc0:	01cfe974 	movhi	r7,16293
  800fc4:	31955304 	addi	r6,r6,21836
  800fc8:	39d55544 	addi	r7,r7,21845
  800fcc:	1009883a 	mov	r4,r2
  800fd0:	180b883a 	mov	r5,r3
  800fd4:	08030680 	call	803068 <__adddf3>
  800fd8:	880d883a 	mov	r6,r17
  800fdc:	800f883a 	mov	r7,r16
  800fe0:	1009883a 	mov	r4,r2
  800fe4:	180b883a 	mov	r5,r3
  800fe8:	08044840 	call	804484 <__muldf3>
  800fec:	1017883a 	mov	r11,r2
  800ff0:	1815883a 	mov	r10,r3
  800ff4:	8809883a 	mov	r4,r17
  800ff8:	800b883a 	mov	r5,r16
  800ffc:	000d883a 	mov	r6,zero
  801000:	01cff834 	movhi	r7,16352
  801004:	da800115 	stw	r10,4(sp)
  801008:	dac00015 	stw	r11,0(sp)
  80100c:	08044840 	call	804484 <__muldf3>
  801010:	dac00017 	ldw	r11,0(sp)
  801014:	da800117 	ldw	r10,4(sp)
  801018:	8809883a 	mov	r4,r17
  80101c:	580d883a 	mov	r6,r11
  801020:	500f883a 	mov	r7,r10
  801024:	800b883a 	mov	r5,r16
  801028:	1023883a 	mov	r17,r2
  80102c:	1821883a 	mov	r16,r3
  801030:	08044840 	call	804484 <__muldf3>
  801034:	b00d883a 	mov	r6,r22
  801038:	b80f883a 	mov	r7,r23
  80103c:	a809883a 	mov	r4,r21
  801040:	e00b883a 	mov	r5,fp
  801044:	1027883a 	mov	r19,r2
  801048:	1825883a 	mov	r18,r3
  80104c:	08044840 	call	804484 <__muldf3>
  801050:	9809883a 	mov	r4,r19
  801054:	900b883a 	mov	r5,r18
  801058:	100d883a 	mov	r6,r2
  80105c:	180f883a 	mov	r7,r3
  801060:	0804c2c0 	call	804c2c <__subdf3>
  801064:	8809883a 	mov	r4,r17
  801068:	800b883a 	mov	r5,r16
  80106c:	100d883a 	mov	r6,r2
  801070:	180f883a 	mov	r7,r3
  801074:	0804c2c0 	call	804c2c <__subdf3>
  801078:	100d883a 	mov	r6,r2
  80107c:	180f883a 	mov	r7,r3
  801080:	0009883a 	mov	r4,zero
  801084:	014ffc34 	movhi	r5,16368
  801088:	0804c2c0 	call	804c2c <__subdf3>
  80108c:	00008f06 	br	8012cc <__kernel_cos+0x460>
  801090:	200d883a 	mov	r6,r4
  801094:	280f883a 	mov	r7,r5
  801098:	08044840 	call	804484 <__muldf3>
  80109c:	01afa234 	movhi	r6,48776
  8010a0:	01ef6a74 	movhi	r7,48553
  8010a4:	318e3504 	addi	r6,r6,14548
  8010a8:	39feba44 	addi	r7,r7,-1303
  8010ac:	1009883a 	mov	r4,r2
  8010b0:	180b883a 	mov	r5,r3
  8010b4:	1029883a 	mov	r20,r2
  8010b8:	1827883a 	mov	r19,r3
  8010bc:	08044840 	call	804484 <__muldf3>
  8010c0:	01af6d74 	movhi	r6,48565
  8010c4:	01cf88b4 	movhi	r7,15906
  8010c8:	31ac7104 	addi	r6,r6,-20028
  8010cc:	39fba784 	addi	r7,r7,-4450
  8010d0:	1009883a 	mov	r4,r2
  8010d4:	180b883a 	mov	r5,r3
  8010d8:	08030680 	call	803068 <__adddf3>
  8010dc:	a00d883a 	mov	r6,r20
  8010e0:	980f883a 	mov	r7,r19
  8010e4:	1009883a 	mov	r4,r2
  8010e8:	180b883a 	mov	r5,r3
  8010ec:	08044840 	call	804484 <__muldf3>
  8010f0:	01a02734 	movhi	r6,32924
  8010f4:	01cfa4b4 	movhi	r7,16018
  8010f8:	3194ab44 	addi	r6,r6,21165
  8010fc:	39df93c4 	addi	r7,r7,32335
  801100:	1009883a 	mov	r4,r2
  801104:	180b883a 	mov	r5,r3
  801108:	0804c2c0 	call	804c2c <__subdf3>
  80110c:	a00d883a 	mov	r6,r20
  801110:	980f883a 	mov	r7,r19
  801114:	1009883a 	mov	r4,r2
  801118:	180b883a 	mov	r5,r3
  80111c:	08044840 	call	804484 <__muldf3>
  801120:	018672f4 	movhi	r6,6603
  801124:	01cfbeb4 	movhi	r7,16122
  801128:	31856404 	addi	r6,r6,5520
  80112c:	39c06804 	addi	r7,r7,416
  801130:	1009883a 	mov	r4,r2
  801134:	180b883a 	mov	r5,r3
  801138:	08030680 	call	803068 <__adddf3>
  80113c:	a00d883a 	mov	r6,r20
  801140:	980f883a 	mov	r7,r19
  801144:	1009883a 	mov	r4,r2
  801148:	180b883a 	mov	r5,r3
  80114c:	08044840 	call	804484 <__muldf3>
  801150:	0185b074 	movhi	r6,5825
  801154:	01cfd5f4 	movhi	r7,16215
  801158:	31945dc4 	addi	r6,r6,20855
  80115c:	39f05b04 	addi	r7,r7,-16020
  801160:	1009883a 	mov	r4,r2
  801164:	180b883a 	mov	r5,r3
  801168:	0804c2c0 	call	804c2c <__subdf3>
  80116c:	a00d883a 	mov	r6,r20
  801170:	980f883a 	mov	r7,r19
  801174:	1009883a 	mov	r4,r2
  801178:	180b883a 	mov	r5,r3
  80117c:	08044840 	call	804484 <__muldf3>
  801180:	01955574 	movhi	r6,21845
  801184:	01cfe974 	movhi	r7,16293
  801188:	31955304 	addi	r6,r6,21836
  80118c:	39d55544 	addi	r7,r7,21845
  801190:	1009883a 	mov	r4,r2
  801194:	180b883a 	mov	r5,r3
  801198:	08030680 	call	803068 <__adddf3>
  80119c:	1009883a 	mov	r4,r2
  8011a0:	a00d883a 	mov	r6,r20
  8011a4:	980f883a 	mov	r7,r19
  8011a8:	180b883a 	mov	r5,r3
  8011ac:	08044840 	call	804484 <__muldf3>
  8011b0:	010ff4f4 	movhi	r4,16339
  8011b4:	210ccc84 	addi	r4,r4,13106
  8011b8:	1013883a 	mov	r9,r2
  8011bc:	1811883a 	mov	r8,r3
  8011c0:	a023883a 	mov	r17,r20
  8011c4:	9821883a 	mov	r16,r19
  8011c8:	1017883a 	mov	r11,r2
  8011cc:	1815883a 	mov	r10,r3
  8011d0:	24bf880e 	bge	r4,r18,800ff4 <__kernel_cos+0x188>
  8011d4:	008ffa74 	movhi	r2,16361
  8011d8:	14804816 	blt	r2,r18,8012fc <__kernel_cos+0x490>
  8011dc:	043ff834 	movhi	r16,65504
  8011e0:	9421883a 	add	r16,r18,r16
  8011e4:	000d883a 	mov	r6,zero
  8011e8:	800f883a 	mov	r7,r16
  8011ec:	0009883a 	mov	r4,zero
  8011f0:	014ffc34 	movhi	r5,16368
  8011f4:	da400015 	stw	r9,0(sp)
  8011f8:	d8c00115 	stw	r3,4(sp)
  8011fc:	0804c2c0 	call	804c2c <__subdf3>
  801200:	da400017 	ldw	r9,0(sp)
  801204:	da000117 	ldw	r8,4(sp)
  801208:	1017883a 	mov	r11,r2
  80120c:	1815883a 	mov	r10,r3
  801210:	980b883a 	mov	r5,r19
  801214:	000d883a 	mov	r6,zero
  801218:	01cff834 	movhi	r7,16352
  80121c:	a009883a 	mov	r4,r20
  801220:	da800115 	stw	r10,4(sp)
  801224:	dac00015 	stw	r11,0(sp)
  801228:	da000315 	stw	r8,12(sp)
  80122c:	da400215 	stw	r9,8(sp)
  801230:	08044840 	call	804484 <__muldf3>
  801234:	800f883a 	mov	r7,r16
  801238:	000d883a 	mov	r6,zero
  80123c:	1009883a 	mov	r4,r2
  801240:	180b883a 	mov	r5,r3
  801244:	0804c2c0 	call	804c2c <__subdf3>
  801248:	da400217 	ldw	r9,8(sp)
  80124c:	da000317 	ldw	r8,12(sp)
  801250:	980b883a 	mov	r5,r19
  801254:	480d883a 	mov	r6,r9
  801258:	400f883a 	mov	r7,r8
  80125c:	a009883a 	mov	r4,r20
  801260:	1023883a 	mov	r17,r2
  801264:	1821883a 	mov	r16,r3
  801268:	08044840 	call	804484 <__muldf3>
  80126c:	b00d883a 	mov	r6,r22
  801270:	b80f883a 	mov	r7,r23
  801274:	a809883a 	mov	r4,r21
  801278:	e00b883a 	mov	r5,fp
  80127c:	1027883a 	mov	r19,r2
  801280:	1825883a 	mov	r18,r3
  801284:	08044840 	call	804484 <__muldf3>
  801288:	100d883a 	mov	r6,r2
  80128c:	180f883a 	mov	r7,r3
  801290:	9809883a 	mov	r4,r19
  801294:	900b883a 	mov	r5,r18
  801298:	0804c2c0 	call	804c2c <__subdf3>
  80129c:	100d883a 	mov	r6,r2
  8012a0:	180f883a 	mov	r7,r3
  8012a4:	8809883a 	mov	r4,r17
  8012a8:	800b883a 	mov	r5,r16
  8012ac:	0804c2c0 	call	804c2c <__subdf3>
  8012b0:	dac00017 	ldw	r11,0(sp)
  8012b4:	da800117 	ldw	r10,4(sp)
  8012b8:	100d883a 	mov	r6,r2
  8012bc:	180f883a 	mov	r7,r3
  8012c0:	5809883a 	mov	r4,r11
  8012c4:	500b883a 	mov	r5,r10
  8012c8:	0804c2c0 	call	804c2c <__subdf3>
  8012cc:	dfc00d17 	ldw	ra,52(sp)
  8012d0:	df000c17 	ldw	fp,48(sp)
  8012d4:	ddc00b17 	ldw	r23,44(sp)
  8012d8:	dd800a17 	ldw	r22,40(sp)
  8012dc:	dd400917 	ldw	r21,36(sp)
  8012e0:	dd000817 	ldw	r20,32(sp)
  8012e4:	dcc00717 	ldw	r19,28(sp)
  8012e8:	dc800617 	ldw	r18,24(sp)
  8012ec:	dc400517 	ldw	r17,20(sp)
  8012f0:	dc000417 	ldw	r16,16(sp)
  8012f4:	dec00e04 	addi	sp,sp,56
  8012f8:	f800283a 	ret
  8012fc:	0017883a 	mov	r11,zero
  801300:	028ff9f4 	movhi	r10,16359
  801304:	040ff4b4 	movhi	r16,16338
  801308:	003fc106 	br	801210 <__kernel_cos+0x3a4>
  80130c:	0005883a 	mov	r2,zero
  801310:	00cffc34 	movhi	r3,16368
  801314:	003fed06 	br	8012cc <__kernel_cos+0x460>

00801318 <__kernel_rem_pio2>:
  801318:	deff5f04 	addi	sp,sp,-644
  80131c:	d880a117 	ldw	r2,644(sp)
  801320:	dc009715 	stw	r16,604(sp)
  801324:	dfc0a015 	stw	ra,640(sp)
  801328:	100690ba 	slli	r3,r2,2
  80132c:	00802074 	movhi	r2,129
  801330:	df009f15 	stw	fp,636(sp)
  801334:	1885883a 	add	r2,r3,r2
  801338:	108ac217 	ldw	r2,11016(r2)
  80133c:	ddc09e15 	stw	r23,632(sp)
  801340:	dd809d15 	stw	r22,628(sp)
  801344:	d8800515 	stw	r2,20(sp)
  801348:	38bfffc4 	addi	r2,r7,-1
  80134c:	dd409c15 	stw	r21,624(sp)
  801350:	dd009b15 	stw	r20,620(sp)
  801354:	dcc09a15 	stw	r19,616(sp)
  801358:	dc809915 	stw	r18,612(sp)
  80135c:	dc409815 	stw	r17,608(sp)
  801360:	d9c00715 	stw	r7,28(sp)
  801364:	30fffb10 	cmplti	r3,r6,-20
  801368:	d9000215 	stw	r4,8(sp)
  80136c:	d9400915 	stw	r5,36(sp)
  801370:	d8800115 	stw	r2,4(sp)
  801374:	3021883a 	mov	r16,r6
  801378:	18028b1e 	bne	r3,zero,801da8 <__kernel_rem_pio2+0xa90>
  80137c:	01400604 	movi	r5,24
  801380:	313fff44 	addi	r4,r6,-3
  801384:	080265c0 	call	80265c <__divsi3>
  801388:	d8800615 	stw	r2,24(sp)
  80138c:	10800044 	addi	r2,r2,1
  801390:	100690ba 	slli	r3,r2,2
  801394:	10c5c83a 	sub	r2,r2,r3
  801398:	100690fa 	slli	r3,r2,3
  80139c:	80c7883a 	add	r3,r16,r3
  8013a0:	d9000117 	ldw	r4,4(sp)
  8013a4:	d8800517 	ldw	r2,20(sp)
  8013a8:	d8c00315 	stw	r3,12(sp)
  8013ac:	d8c00617 	ldw	r3,24(sp)
  8013b0:	1105883a 	add	r2,r2,r4
  8013b4:	1921c83a 	sub	r16,r3,r4
  8013b8:	10001216 	blt	r2,zero,801404 <__kernel_rem_pio2+0xec>
  8013bc:	10800044 	addi	r2,r2,1
  8013c0:	dcc0a217 	ldw	r19,648(sp)
  8013c4:	dc401f04 	addi	r17,sp,124
  8013c8:	1425883a 	add	r18,r2,r16
  8013cc:	00000806 	br	8013f0 <__kernel_rem_pio2+0xd8>
  8013d0:	9885883a 	add	r2,r19,r2
  8013d4:	11000017 	ldw	r4,0(r2)
  8013d8:	08055e00 	call	8055e0 <__floatsidf>
  8013dc:	88800015 	stw	r2,0(r17)
  8013e0:	88c00115 	stw	r3,4(r17)
  8013e4:	84000044 	addi	r16,r16,1
  8013e8:	8c400204 	addi	r17,r17,8
  8013ec:	84800526 	beq	r16,r18,801404 <__kernel_rem_pio2+0xec>
  8013f0:	800490ba 	slli	r2,r16,2
  8013f4:	803ff60e 	bge	r16,zero,8013d0 <__kernel_rem_pio2+0xb8>
  8013f8:	0005883a 	mov	r2,zero
  8013fc:	0007883a 	mov	r3,zero
  801400:	003ff606 	br	8013dc <__kernel_rem_pio2+0xc4>
  801404:	d8800517 	ldw	r2,20(sp)
  801408:	10002516 	blt	r2,zero,8014a0 <__kernel_rem_pio2+0x188>
  80140c:	dcc00117 	ldw	r19,4(sp)
  801410:	d8c01f04 	addi	r3,sp,124
  801414:	dc406f04 	addi	r17,sp,444
  801418:	982490fa 	slli	r18,r19,3
  80141c:	94000204 	addi	r16,r18,8
  801420:	1ca5883a 	add	r18,r3,r18
  801424:	d8c00717 	ldw	r3,28(sp)
  801428:	10ef883a 	add	r23,r2,r3
  80142c:	d8800217 	ldw	r2,8(sp)
  801430:	80a1883a 	add	r16,r16,r2
  801434:	d8800117 	ldw	r2,4(sp)
  801438:	10015316 	blt	r2,zero,801988 <__kernel_rem_pio2+0x670>
  80143c:	dd000217 	ldw	r20,8(sp)
  801440:	902d883a 	mov	r22,r18
  801444:	0039883a 	mov	fp,zero
  801448:	002b883a 	mov	r21,zero
  80144c:	b1800017 	ldw	r6,0(r22)
  801450:	b1c00117 	ldw	r7,4(r22)
  801454:	a1000017 	ldw	r4,0(r20)
  801458:	a1400117 	ldw	r5,4(r20)
  80145c:	a5000204 	addi	r20,r20,8
  801460:	b5bffe04 	addi	r22,r22,-8
  801464:	08044840 	call	804484 <__muldf3>
  801468:	e009883a 	mov	r4,fp
  80146c:	a80b883a 	mov	r5,r21
  801470:	100d883a 	mov	r6,r2
  801474:	180f883a 	mov	r7,r3
  801478:	08030680 	call	803068 <__adddf3>
  80147c:	1039883a 	mov	fp,r2
  801480:	182b883a 	mov	r21,r3
  801484:	a43ff11e 	bne	r20,r16,80144c <__kernel_rem_pio2+0x134>
  801488:	8f000015 	stw	fp,0(r17)
  80148c:	8d400115 	stw	r21,4(r17)
  801490:	9cc00044 	addi	r19,r19,1
  801494:	8c400204 	addi	r17,r17,8
  801498:	94800204 	addi	r18,r18,8
  80149c:	9dffe51e 	bne	r19,r23,801434 <__kernel_rem_pio2+0x11c>
  8014a0:	dc400517 	ldw	r17,20(sp)
  8014a4:	d8c00717 	ldw	r3,28(sp)
  8014a8:	d9000217 	ldw	r4,8(sp)
  8014ac:	88bfffc4 	addi	r2,r17,-1
  8014b0:	180690fa 	slli	r3,r3,3
  8014b4:	883890ba 	slli	fp,r17,2
  8014b8:	100490ba 	slli	r2,r2,2
  8014bc:	243ffe04 	addi	r16,r4,-8
  8014c0:	80e1883a 	add	r16,r16,r3
  8014c4:	d9000b04 	addi	r4,sp,44
  8014c8:	d8c09704 	addi	r3,sp,604
  8014cc:	2709883a 	add	r4,r4,fp
  8014d0:	1885883a 	add	r2,r3,r2
  8014d4:	d9000415 	stw	r4,16(sp)
  8014d8:	d8800815 	stw	r2,32(sp)
  8014dc:	883890fa 	slli	fp,r17,3
  8014e0:	d8809704 	addi	r2,sp,604
  8014e4:	1705883a 	add	r2,r2,fp
  8014e8:	157fd817 	ldw	r21,-160(r2)
  8014ec:	153fd917 	ldw	r20,-156(r2)
  8014f0:	0440280e 	bge	zero,r17,801594 <__kernel_rem_pio2+0x27c>
  8014f4:	d8806f04 	addi	r2,sp,444
  8014f8:	1725883a 	add	r18,r2,fp
  8014fc:	dcc00b04 	addi	r19,sp,44
  801500:	000d883a 	mov	r6,zero
  801504:	01cf9c34 	movhi	r7,15984
  801508:	a809883a 	mov	r4,r21
  80150c:	a00b883a 	mov	r5,r20
  801510:	08044840 	call	804484 <__muldf3>
  801514:	180b883a 	mov	r5,r3
  801518:	1009883a 	mov	r4,r2
  80151c:	08055600 	call	805560 <__fixdfsi>
  801520:	1009883a 	mov	r4,r2
  801524:	08055e00 	call	8055e0 <__floatsidf>
  801528:	000d883a 	mov	r6,zero
  80152c:	01d05c34 	movhi	r7,16752
  801530:	1009883a 	mov	r4,r2
  801534:	180b883a 	mov	r5,r3
  801538:	102f883a 	mov	r23,r2
  80153c:	182d883a 	mov	r22,r3
  801540:	08044840 	call	804484 <__muldf3>
  801544:	100d883a 	mov	r6,r2
  801548:	180f883a 	mov	r7,r3
  80154c:	a809883a 	mov	r4,r21
  801550:	a00b883a 	mov	r5,r20
  801554:	0804c2c0 	call	804c2c <__subdf3>
  801558:	180b883a 	mov	r5,r3
  80155c:	1009883a 	mov	r4,r2
  801560:	08055600 	call	805560 <__fixdfsi>
  801564:	91bffe17 	ldw	r6,-8(r18)
  801568:	91ffff17 	ldw	r7,-4(r18)
  80156c:	98800015 	stw	r2,0(r19)
  801570:	b809883a 	mov	r4,r23
  801574:	b00b883a 	mov	r5,r22
  801578:	08030680 	call	803068 <__adddf3>
  80157c:	102b883a 	mov	r21,r2
  801580:	94bffe04 	addi	r18,r18,-8
  801584:	d8806f04 	addi	r2,sp,444
  801588:	1829883a 	mov	r20,r3
  80158c:	9cc00104 	addi	r19,r19,4
  801590:	14bfdb1e 	bne	r2,r18,801500 <__kernel_rem_pio2+0x1e8>
  801594:	dd800317 	ldw	r22,12(sp)
  801598:	a809883a 	mov	r4,r21
  80159c:	a00b883a 	mov	r5,r20
  8015a0:	b00d883a 	mov	r6,r22
  8015a4:	080249c0 	call	80249c <scalbn>
  8015a8:	000d883a 	mov	r6,zero
  8015ac:	01cff034 	movhi	r7,16320
  8015b0:	1009883a 	mov	r4,r2
  8015b4:	180b883a 	mov	r5,r3
  8015b8:	1029883a 	mov	r20,r2
  8015bc:	1827883a 	mov	r19,r3
  8015c0:	08044840 	call	804484 <__muldf3>
  8015c4:	1009883a 	mov	r4,r2
  8015c8:	180b883a 	mov	r5,r3
  8015cc:	08022b80 	call	8022b8 <floor>
  8015d0:	000d883a 	mov	r6,zero
  8015d4:	01d00834 	movhi	r7,16416
  8015d8:	1009883a 	mov	r4,r2
  8015dc:	180b883a 	mov	r5,r3
  8015e0:	08044840 	call	804484 <__muldf3>
  8015e4:	100d883a 	mov	r6,r2
  8015e8:	180f883a 	mov	r7,r3
  8015ec:	a009883a 	mov	r4,r20
  8015f0:	980b883a 	mov	r5,r19
  8015f4:	0804c2c0 	call	804c2c <__subdf3>
  8015f8:	180b883a 	mov	r5,r3
  8015fc:	1009883a 	mov	r4,r2
  801600:	1827883a 	mov	r19,r3
  801604:	102b883a 	mov	r21,r2
  801608:	08055600 	call	805560 <__fixdfsi>
  80160c:	1009883a 	mov	r4,r2
  801610:	1029883a 	mov	r20,r2
  801614:	08055e00 	call	8055e0 <__floatsidf>
  801618:	980b883a 	mov	r5,r19
  80161c:	100d883a 	mov	r6,r2
  801620:	180f883a 	mov	r7,r3
  801624:	a809883a 	mov	r4,r21
  801628:	0804c2c0 	call	804c2c <__subdf3>
  80162c:	1025883a 	mov	r18,r2
  801630:	1027883a 	mov	r19,r2
  801634:	1813883a 	mov	r9,r3
  801638:	0580660e 	bge	zero,r22,8017d4 <__kernel_rem_pio2+0x4bc>
  80163c:	88bfffc4 	addi	r2,r17,-1
  801640:	100490ba 	slli	r2,r2,2
  801644:	d9409704 	addi	r5,sp,604
  801648:	01000604 	movi	r4,24
  80164c:	2885883a 	add	r2,r5,r2
  801650:	117f7417 	ldw	r5,-560(r2)
  801654:	2589c83a 	sub	r4,r4,r22
  801658:	054005c4 	movi	r21,23
  80165c:	290dd83a 	sra	r6,r5,r4
  801660:	adabc83a 	sub	r21,r21,r22
  801664:	3108983a 	sll	r4,r6,r4
  801668:	a1a9883a 	add	r20,r20,r6
  80166c:	2909c83a 	sub	r4,r5,r4
  801670:	256bd83a 	sra	r21,r4,r21
  801674:	113f7415 	stw	r4,-560(r2)
  801678:	05405f16 	blt	zero,r21,8017f8 <__kernel_rem_pio2+0x4e0>
  80167c:	480b883a 	mov	r5,r9
  801680:	000d883a 	mov	r6,zero
  801684:	000f883a 	mov	r7,zero
  801688:	9809883a 	mov	r4,r19
  80168c:	da400015 	stw	r9,0(sp)
  801690:	08043140 	call	804314 <__eqdf2>
  801694:	da400017 	ldw	r9,0(sp)
  801698:	1001c61e 	bne	r2,zero,801db4 <__kernel_rem_pio2+0xa9c>
  80169c:	d8800517 	ldw	r2,20(sp)
  8016a0:	8cffffc4 	addi	r19,r17,-1
  8016a4:	98800a16 	blt	r19,r2,8016d0 <__kernel_rem_pio2+0x3b8>
  8016a8:	880490ba 	slli	r2,r17,2
  8016ac:	d9400417 	ldw	r5,16(sp)
  8016b0:	d9000b04 	addi	r4,sp,44
  8016b4:	0007883a 	mov	r3,zero
  8016b8:	2085883a 	add	r2,r4,r2
  8016bc:	113fff17 	ldw	r4,-4(r2)
  8016c0:	10bfff04 	addi	r2,r2,-4
  8016c4:	1906b03a 	or	r3,r3,r4
  8016c8:	117ffc1e 	bne	r2,r5,8016bc <__kernel_rem_pio2+0x3a4>
  8016cc:	1800b11e 	bne	r3,zero,801994 <__kernel_rem_pio2+0x67c>
  8016d0:	d8800817 	ldw	r2,32(sp)
  8016d4:	10bf7417 	ldw	r2,-560(r2)
  8016d8:	1000a81e 	bne	r2,zero,80197c <__kernel_rem_pio2+0x664>
  8016dc:	d8800417 	ldw	r2,16(sp)
  8016e0:	05000044 	movi	r20,1
  8016e4:	10fffe17 	ldw	r3,-8(r2)
  8016e8:	a5000044 	addi	r20,r20,1
  8016ec:	10bfff04 	addi	r2,r2,-4
  8016f0:	183ffc26 	beq	r3,zero,8016e4 <__kernel_rem_pio2+0x3cc>
  8016f4:	8d05883a 	add	r2,r17,r20
  8016f8:	8d400044 	addi	r21,r17,1
  8016fc:	d8800015 	stw	r2,0(sp)
  801700:	d8800617 	ldw	r2,24(sp)
  801704:	88a7883a 	add	r19,r17,r2
  801708:	d8800717 	ldw	r2,28(sp)
  80170c:	982690ba 	slli	r19,r19,2
  801710:	1463883a 	add	r17,r2,r17
  801714:	d880a217 	ldw	r2,648(sp)
  801718:	882290fa 	slli	r17,r17,3
  80171c:	14e7883a 	add	r19,r2,r19
  801720:	d8801f04 	addi	r2,sp,124
  801724:	1463883a 	add	r17,r2,r17
  801728:	d8806f04 	addi	r2,sp,444
  80172c:	1725883a 	add	r18,r2,fp
  801730:	99000117 	ldw	r4,4(r19)
  801734:	08055e00 	call	8055e0 <__floatsidf>
  801738:	1009883a 	mov	r4,r2
  80173c:	88800015 	stw	r2,0(r17)
  801740:	d8800117 	ldw	r2,4(sp)
  801744:	88c00115 	stw	r3,4(r17)
  801748:	180b883a 	mov	r5,r3
  80174c:	10001e16 	blt	r2,zero,8017c8 <__kernel_rem_pio2+0x4b0>
  801750:	dd000217 	ldw	r20,8(sp)
  801754:	882f883a 	mov	r23,r17
  801758:	002d883a 	mov	r22,zero
  80175c:	0039883a 	mov	fp,zero
  801760:	00000306 	br	801770 <__kernel_rem_pio2+0x458>
  801764:	b9000017 	ldw	r4,0(r23)
  801768:	b9400117 	ldw	r5,4(r23)
  80176c:	a5000204 	addi	r20,r20,8
  801770:	a1800017 	ldw	r6,0(r20)
  801774:	a1c00117 	ldw	r7,4(r20)
  801778:	bdfffe04 	addi	r23,r23,-8
  80177c:	08044840 	call	804484 <__muldf3>
  801780:	b009883a 	mov	r4,r22
  801784:	e00b883a 	mov	r5,fp
  801788:	100d883a 	mov	r6,r2
  80178c:	180f883a 	mov	r7,r3
  801790:	08030680 	call	803068 <__adddf3>
  801794:	102d883a 	mov	r22,r2
  801798:	1839883a 	mov	fp,r3
  80179c:	a43ff11e 	bne	r20,r16,801764 <__kernel_rem_pio2+0x44c>
  8017a0:	d8800017 	ldw	r2,0(sp)
  8017a4:	95800215 	stw	r22,8(r18)
  8017a8:	97000315 	stw	fp,12(r18)
  8017ac:	ad400044 	addi	r21,r21,1
  8017b0:	9cc00104 	addi	r19,r19,4
  8017b4:	8c400204 	addi	r17,r17,8
  8017b8:	94800204 	addi	r18,r18,8
  8017bc:	157fdc0e 	bge	r2,r21,801730 <__kernel_rem_pio2+0x418>
  8017c0:	1023883a 	mov	r17,r2
  8017c4:	003f4506 	br	8014dc <__kernel_rem_pio2+0x1c4>
  8017c8:	002d883a 	mov	r22,zero
  8017cc:	0039883a 	mov	fp,zero
  8017d0:	003ff306 	br	8017a0 <__kernel_rem_pio2+0x488>
  8017d4:	d8800317 	ldw	r2,12(sp)
  8017d8:	10005c1e 	bne	r2,zero,80194c <__kernel_rem_pio2+0x634>
  8017dc:	88bfffc4 	addi	r2,r17,-1
  8017e0:	100490ba 	slli	r2,r2,2
  8017e4:	d9009704 	addi	r4,sp,604
  8017e8:	2085883a 	add	r2,r4,r2
  8017ec:	157f7417 	ldw	r21,-560(r2)
  8017f0:	a82bd5fa 	srai	r21,r21,23
  8017f4:	057fa10e 	bge	zero,r21,80167c <__kernel_rem_pio2+0x364>
  8017f8:	a5000044 	addi	r20,r20,1
  8017fc:	04419f0e 	bge	zero,r17,801e7c <__kernel_rem_pio2+0xb64>
  801800:	da800b17 	ldw	r10,44(sp)
  801804:	50004e1e 	bne	r10,zero,801940 <__kernel_rem_pio2+0x628>
  801808:	88800060 	cmpeqi	r2,r17,1
  80180c:	1000231e 	bne	r2,zero,80189c <__kernel_rem_pio2+0x584>
  801810:	da800c17 	ldw	r10,48(sp)
  801814:	d9400c04 	addi	r5,sp,48
  801818:	00800044 	movi	r2,1
  80181c:	11000044 	addi	r4,r2,1
  801820:	29400104 	addi	r5,r5,4
  801824:	5000061e 	bne	r10,zero,801840 <__kernel_rem_pio2+0x528>
  801828:	89001c26 	beq	r17,r4,80189c <__kernel_rem_pio2+0x584>
  80182c:	2a800017 	ldw	r10,0(r5)
  801830:	2005883a 	mov	r2,r4
  801834:	11000044 	addi	r4,r2,1
  801838:	29400104 	addi	r5,r5,4
  80183c:	503ffa26 	beq	r10,zero,801828 <__kernel_rem_pio2+0x510>
  801840:	100490ba 	slli	r2,r2,2
  801844:	01404034 	movhi	r5,256
  801848:	2a95c83a 	sub	r10,r5,r10
  80184c:	d9409704 	addi	r5,sp,604
  801850:	2885883a 	add	r2,r5,r2
  801854:	12bf7415 	stw	r10,-560(r2)
  801858:	24400f0e 	bge	r4,r17,801898 <__kernel_rem_pio2+0x580>
  80185c:	200890ba 	slli	r4,r4,2
  801860:	880490ba 	slli	r2,r17,2
  801864:	d9c00b04 	addi	r7,sp,44
  801868:	290b883a 	add	r5,r5,r4
  80186c:	01804034 	movhi	r6,256
  801870:	297f7417 	ldw	r5,-560(r5)
  801874:	3909883a 	add	r4,r7,r4
  801878:	3885883a 	add	r2,r7,r2
  80187c:	31bfffc4 	addi	r6,r6,-1
  801880:	00000106 	br	801888 <__kernel_rem_pio2+0x570>
  801884:	21400017 	ldw	r5,0(r4)
  801888:	314bc83a 	sub	r5,r6,r5
  80188c:	21400015 	stw	r5,0(r4)
  801890:	21000104 	addi	r4,r4,4
  801894:	20bffb1e 	bne	r4,r2,801884 <__kernel_rem_pio2+0x56c>
  801898:	02800044 	movi	r10,1
  80189c:	d9000317 	ldw	r4,12(sp)
  8018a0:	01000d0e 	bge	zero,r4,8018d8 <__kernel_rem_pio2+0x5c0>
  8018a4:	20800060 	cmpeqi	r2,r4,1
  8018a8:	1001301e 	bne	r2,zero,801d6c <__kernel_rem_pio2+0xa54>
  8018ac:	208000a0 	cmpeqi	r2,r4,2
  8018b0:	10000926 	beq	r2,zero,8018d8 <__kernel_rem_pio2+0x5c0>
  8018b4:	88bfffc4 	addi	r2,r17,-1
  8018b8:	100490ba 	slli	r2,r2,2
  8018bc:	01401034 	movhi	r5,64
  8018c0:	d9009704 	addi	r4,sp,604
  8018c4:	2085883a 	add	r2,r4,r2
  8018c8:	113f7417 	ldw	r4,-560(r2)
  8018cc:	297fffc4 	addi	r5,r5,-1
  8018d0:	2148703a 	and	r4,r4,r5
  8018d4:	113f7415 	stw	r4,-560(r2)
  8018d8:	a8800098 	cmpnei	r2,r21,2
  8018dc:	103f671e 	bne	r2,zero,80167c <__kernel_rem_pio2+0x364>
  8018e0:	900d883a 	mov	r6,r18
  8018e4:	180f883a 	mov	r7,r3
  8018e8:	0009883a 	mov	r4,zero
  8018ec:	014ffc34 	movhi	r5,16368
  8018f0:	da800015 	stw	r10,0(sp)
  8018f4:	0804c2c0 	call	804c2c <__subdf3>
  8018f8:	da800017 	ldw	r10,0(sp)
  8018fc:	1027883a 	mov	r19,r2
  801900:	1813883a 	mov	r9,r3
  801904:	503f5d26 	beq	r10,zero,80167c <__kernel_rem_pio2+0x364>
  801908:	d9800317 	ldw	r6,12(sp)
  80190c:	0009883a 	mov	r4,zero
  801910:	014ffc34 	movhi	r5,16368
  801914:	d8c00015 	stw	r3,0(sp)
  801918:	080249c0 	call	80249c <scalbn>
  80191c:	da400017 	ldw	r9,0(sp)
  801920:	9809883a 	mov	r4,r19
  801924:	100d883a 	mov	r6,r2
  801928:	480b883a 	mov	r5,r9
  80192c:	180f883a 	mov	r7,r3
  801930:	0804c2c0 	call	804c2c <__subdf3>
  801934:	1027883a 	mov	r19,r2
  801938:	1813883a 	mov	r9,r3
  80193c:	003f4f06 	br	80167c <__kernel_rem_pio2+0x364>
  801940:	01000044 	movi	r4,1
  801944:	0005883a 	mov	r2,zero
  801948:	003fbd06 	br	801840 <__kernel_rem_pio2+0x528>
  80194c:	180b883a 	mov	r5,r3
  801950:	000d883a 	mov	r6,zero
  801954:	01cff834 	movhi	r7,16352
  801958:	9009883a 	mov	r4,r18
  80195c:	d8c00a15 	stw	r3,40(sp)
  801960:	d8c00015 	stw	r3,0(sp)
  801964:	08043940 	call	804394 <__gedf2>
  801968:	da400017 	ldw	r9,0(sp)
  80196c:	d8c00a17 	ldw	r3,40(sp)
  801970:	1001020e 	bge	r2,zero,801d7c <__kernel_rem_pio2+0xa64>
  801974:	002b883a 	mov	r21,zero
  801978:	003f4006 	br	80167c <__kernel_rem_pio2+0x364>
  80197c:	8d400044 	addi	r21,r17,1
  801980:	dd400015 	stw	r21,0(sp)
  801984:	003f5e06 	br	801700 <__kernel_rem_pio2+0x3e8>
  801988:	0039883a 	mov	fp,zero
  80198c:	002b883a 	mov	r21,zero
  801990:	003ebd06 	br	801488 <__kernel_rem_pio2+0x170>
  801994:	d8c00317 	ldw	r3,12(sp)
  801998:	980490ba 	slli	r2,r19,2
  80199c:	dd400215 	stw	r21,8(sp)
  8019a0:	193ffa04 	addi	r4,r3,-24
  8019a4:	d8c09704 	addi	r3,sp,604
  8019a8:	1887883a 	add	r3,r3,r2
  8019ac:	18ff7417 	ldw	r3,-560(r3)
  8019b0:	d9000315 	stw	r4,12(sp)
  8019b4:	1800091e 	bne	r3,zero,8019dc <__kernel_rem_pio2+0x6c4>
  8019b8:	d8c00b04 	addi	r3,sp,44
  8019bc:	1885883a 	add	r2,r3,r2
  8019c0:	2007883a 	mov	r3,r4
  8019c4:	113fff17 	ldw	r4,-4(r2)
  8019c8:	9cffffc4 	addi	r19,r19,-1
  8019cc:	10bfff04 	addi	r2,r2,-4
  8019d0:	18fffa04 	addi	r3,r3,-24
  8019d4:	203ffb26 	beq	r4,zero,8019c4 <__kernel_rem_pio2+0x6ac>
  8019d8:	d8c00315 	stw	r3,12(sp)
  8019dc:	d9800317 	ldw	r6,12(sp)
  8019e0:	0009883a 	mov	r4,zero
  8019e4:	014ffc34 	movhi	r5,16368
  8019e8:	080249c0 	call	80249c <scalbn>
  8019ec:	1021883a 	mov	r16,r2
  8019f0:	1823883a 	mov	r17,r3
  8019f4:	98016c16 	blt	r19,zero,801fa8 <__kernel_rem_pio2+0xc90>
  8019f8:	980490fa 	slli	r2,r19,3
  8019fc:	982c90ba 	slli	r22,r19,2
  801a00:	d8c06f04 	addi	r3,sp,444
  801a04:	18b9883a 	add	fp,r3,r2
  801a08:	d8800315 	stw	r2,12(sp)
  801a0c:	d8800b04 	addi	r2,sp,44
  801a10:	df000115 	stw	fp,4(sp)
  801a14:	15ad883a 	add	r22,r2,r22
  801a18:	b1000017 	ldw	r4,0(r22)
  801a1c:	e73ffe04 	addi	fp,fp,-8
  801a20:	08055e00 	call	8055e0 <__floatsidf>
  801a24:	800d883a 	mov	r6,r16
  801a28:	880f883a 	mov	r7,r17
  801a2c:	1009883a 	mov	r4,r2
  801a30:	180b883a 	mov	r5,r3
  801a34:	08044840 	call	804484 <__muldf3>
  801a38:	8009883a 	mov	r4,r16
  801a3c:	880b883a 	mov	r5,r17
  801a40:	000d883a 	mov	r6,zero
  801a44:	01cf9c34 	movhi	r7,15984
  801a48:	e0800215 	stw	r2,8(fp)
  801a4c:	e0c00315 	stw	r3,12(fp)
  801a50:	08044840 	call	804484 <__muldf3>
  801a54:	b009883a 	mov	r4,r22
  801a58:	1021883a 	mov	r16,r2
  801a5c:	d8800b04 	addi	r2,sp,44
  801a60:	1823883a 	mov	r17,r3
  801a64:	b5bfff04 	addi	r22,r22,-4
  801a68:	113feb1e 	bne	r2,r4,801a18 <__kernel_rem_pio2+0x700>
  801a6c:	05cffe74 	movhi	r23,16377
  801a70:	dc800517 	ldw	r18,20(sp)
  801a74:	bdc87ec4 	addi	r23,r23,8699
  801a78:	dd800117 	ldw	r22,4(sp)
  801a7c:	d8804704 	addi	r2,sp,284
  801a80:	dd000415 	stw	r20,16(sp)
  801a84:	dcc00015 	stw	r19,0(sp)
  801a88:	ddc00115 	stw	r23,4(sp)
  801a8c:	0021883a 	mov	r16,zero
  801a90:	102b883a 	mov	r21,r2
  801a94:	90002316 	blt	r18,zero,801b24 <__kernel_rem_pio2+0x80c>
  801a98:	04c02074 	movhi	r19,129
  801a9c:	d9400117 	ldw	r5,4(sp)
  801aa0:	9ccab204 	addi	r19,r19,10952
  801aa4:	b02f883a 	mov	r23,r22
  801aa8:	01100034 	movhi	r4,16384
  801aac:	0039883a 	mov	fp,zero
  801ab0:	0023883a 	mov	r17,zero
  801ab4:	0029883a 	mov	r20,zero
  801ab8:	00000506 	br	801ad0 <__kernel_rem_pio2+0x7b8>
  801abc:	9cc00204 	addi	r19,r19,8
  801ac0:	bdc00204 	addi	r23,r23,8
  801ac4:	85000e16 	blt	r16,r20,801b00 <__kernel_rem_pio2+0x7e8>
  801ac8:	99000017 	ldw	r4,0(r19)
  801acc:	99400117 	ldw	r5,4(r19)
  801ad0:	b9800017 	ldw	r6,0(r23)
  801ad4:	b9c00117 	ldw	r7,4(r23)
  801ad8:	a5000044 	addi	r20,r20,1
  801adc:	08044840 	call	804484 <__muldf3>
  801ae0:	e009883a 	mov	r4,fp
  801ae4:	880b883a 	mov	r5,r17
  801ae8:	100d883a 	mov	r6,r2
  801aec:	180f883a 	mov	r7,r3
  801af0:	08030680 	call	803068 <__adddf3>
  801af4:	1039883a 	mov	fp,r2
  801af8:	1823883a 	mov	r17,r3
  801afc:	953fef0e 	bge	r18,r20,801abc <__kernel_rem_pio2+0x7a4>
  801b00:	d8c00017 	ldw	r3,0(sp)
  801b04:	af000015 	stw	fp,0(r21)
  801b08:	ac400115 	stw	r17,4(r21)
  801b0c:	80800044 	addi	r2,r16,1
  801b10:	ad400204 	addi	r21,r21,8
  801b14:	b5bffe04 	addi	r22,r22,-8
  801b18:	1c000526 	beq	r3,r16,801b30 <__kernel_rem_pio2+0x818>
  801b1c:	1021883a 	mov	r16,r2
  801b20:	903fdd0e 	bge	r18,zero,801a98 <__kernel_rem_pio2+0x780>
  801b24:	0039883a 	mov	fp,zero
  801b28:	0023883a 	mov	r17,zero
  801b2c:	003ff406 	br	801b00 <__kernel_rem_pio2+0x7e8>
  801b30:	d880a117 	ldw	r2,644(sp)
  801b34:	dd000417 	ldw	r20,16(sp)
  801b38:	dcc00017 	ldw	r19,0(sp)
  801b3c:	108000c8 	cmpgei	r2,r2,3
  801b40:	1000241e 	bne	r2,zero,801bd4 <__kernel_rem_pio2+0x8bc>
  801b44:	d880a117 	ldw	r2,644(sp)
  801b48:	0080ce16 	blt	zero,r2,801e84 <__kernel_rem_pio2+0xb6c>
  801b4c:	1000141e 	bne	r2,zero,801ba0 <__kernel_rem_pio2+0x888>
  801b50:	d8c00317 	ldw	r3,12(sp)
  801b54:	d8804704 	addi	r2,sp,284
  801b58:	0009883a 	mov	r4,zero
  801b5c:	10eb883a 	add	r21,r2,r3
  801b60:	000b883a 	mov	r5,zero
  801b64:	a9800017 	ldw	r6,0(r21)
  801b68:	a9c00117 	ldw	r7,4(r21)
  801b6c:	08030680 	call	803068 <__adddf3>
  801b70:	a80d883a 	mov	r6,r21
  801b74:	1009883a 	mov	r4,r2
  801b78:	d8804704 	addi	r2,sp,284
  801b7c:	180b883a 	mov	r5,r3
  801b80:	ad7ffe04 	addi	r21,r21,-8
  801b84:	11bff71e 	bne	r2,r6,801b64 <__kernel_rem_pio2+0x84c>
  801b88:	d8800217 	ldw	r2,8(sp)
  801b8c:	10000126 	beq	r2,zero,801b94 <__kernel_rem_pio2+0x87c>
  801b90:	2960003c 	xorhi	r5,r5,32768
  801b94:	d8800917 	ldw	r2,36(sp)
  801b98:	11000015 	stw	r4,0(r2)
  801b9c:	11400115 	stw	r5,4(r2)
  801ba0:	a08001cc 	andi	r2,r20,7
  801ba4:	dfc0a017 	ldw	ra,640(sp)
  801ba8:	df009f17 	ldw	fp,636(sp)
  801bac:	ddc09e17 	ldw	r23,632(sp)
  801bb0:	dd809d17 	ldw	r22,628(sp)
  801bb4:	dd409c17 	ldw	r21,624(sp)
  801bb8:	dd009b17 	ldw	r20,620(sp)
  801bbc:	dcc09a17 	ldw	r19,616(sp)
  801bc0:	dc809917 	ldw	r18,612(sp)
  801bc4:	dc409817 	ldw	r17,608(sp)
  801bc8:	dc009717 	ldw	r16,604(sp)
  801bcc:	dec0a104 	addi	sp,sp,644
  801bd0:	f800283a 	ret
  801bd4:	d880a117 	ldw	r2,644(sp)
  801bd8:	108000e0 	cmpeqi	r2,r2,3
  801bdc:	103ff026 	beq	r2,zero,801ba0 <__kernel_rem_pio2+0x888>
  801be0:	9800fd26 	beq	r19,zero,801fd8 <__kernel_rem_pio2+0xcc0>
  801be4:	d8c00317 	ldw	r3,12(sp)
  801be8:	d8809704 	addi	r2,sp,604
  801bec:	10c5883a 	add	r2,r2,r3
  801bf0:	14bfb017 	ldw	r18,-320(r2)
  801bf4:	147fb117 	ldw	r17,-316(r2)
  801bf8:	d8804704 	addi	r2,sp,284
  801bfc:	10e1883a 	add	r16,r2,r3
  801c00:	85bffe17 	ldw	r22,-8(r16)
  801c04:	857fff17 	ldw	r21,-4(r16)
  801c08:	9009883a 	mov	r4,r18
  801c0c:	880b883a 	mov	r5,r17
  801c10:	b00d883a 	mov	r6,r22
  801c14:	a80f883a 	mov	r7,r21
  801c18:	08030680 	call	803068 <__adddf3>
  801c1c:	100d883a 	mov	r6,r2
  801c20:	180f883a 	mov	r7,r3
  801c24:	b009883a 	mov	r4,r22
  801c28:	a80b883a 	mov	r5,r21
  801c2c:	9039883a 	mov	fp,r18
  801c30:	882f883a 	mov	r23,r17
  801c34:	1025883a 	mov	r18,r2
  801c38:	1823883a 	mov	r17,r3
  801c3c:	0804c2c0 	call	804c2c <__subdf3>
  801c40:	e00d883a 	mov	r6,fp
  801c44:	b80f883a 	mov	r7,r23
  801c48:	1009883a 	mov	r4,r2
  801c4c:	180b883a 	mov	r5,r3
  801c50:	08030680 	call	803068 <__adddf3>
  801c54:	80800015 	stw	r2,0(r16)
  801c58:	80c00115 	stw	r3,4(r16)
  801c5c:	84bffe15 	stw	r18,-8(r16)
  801c60:	847fff15 	stw	r17,-4(r16)
  801c64:	d8804704 	addi	r2,sp,284
  801c68:	843ffe04 	addi	r16,r16,-8
  801c6c:	143fe41e 	bne	r2,r16,801c00 <__kernel_rem_pio2+0x8e8>
  801c70:	9cc00088 	cmpgei	r19,r19,2
  801c74:	9800d826 	beq	r19,zero,801fd8 <__kernel_rem_pio2+0xcc0>
  801c78:	d8c00317 	ldw	r3,12(sp)
  801c7c:	d8809704 	addi	r2,sp,604
  801c80:	dc404904 	addi	r17,sp,292
  801c84:	10c5883a 	add	r2,r2,r3
  801c88:	14ffb017 	ldw	r19,-320(r2)
  801c8c:	14bfb117 	ldw	r18,-316(r2)
  801c90:	d8804704 	addi	r2,sp,284
  801c94:	10eb883a 	add	r21,r2,r3
  801c98:	a821883a 	mov	r16,r21
  801c9c:	dd000015 	stw	r20,0(sp)
  801ca0:	85fffe17 	ldw	r23,-8(r16)
  801ca4:	85bfff17 	ldw	r22,-4(r16)
  801ca8:	9809883a 	mov	r4,r19
  801cac:	900b883a 	mov	r5,r18
  801cb0:	b80d883a 	mov	r6,r23
  801cb4:	b00f883a 	mov	r7,r22
  801cb8:	08030680 	call	803068 <__adddf3>
  801cbc:	100d883a 	mov	r6,r2
  801cc0:	180f883a 	mov	r7,r3
  801cc4:	b809883a 	mov	r4,r23
  801cc8:	b00b883a 	mov	r5,r22
  801ccc:	9829883a 	mov	r20,r19
  801cd0:	9039883a 	mov	fp,r18
  801cd4:	1027883a 	mov	r19,r2
  801cd8:	1825883a 	mov	r18,r3
  801cdc:	0804c2c0 	call	804c2c <__subdf3>
  801ce0:	a00d883a 	mov	r6,r20
  801ce4:	e00f883a 	mov	r7,fp
  801ce8:	1009883a 	mov	r4,r2
  801cec:	180b883a 	mov	r5,r3
  801cf0:	08030680 	call	803068 <__adddf3>
  801cf4:	80800015 	stw	r2,0(r16)
  801cf8:	80c00115 	stw	r3,4(r16)
  801cfc:	84fffe15 	stw	r19,-8(r16)
  801d00:	84bfff15 	stw	r18,-4(r16)
  801d04:	843ffe04 	addi	r16,r16,-8
  801d08:	8c3fe51e 	bne	r17,r16,801ca0 <__kernel_rem_pio2+0x988>
  801d0c:	dd000017 	ldw	r20,0(sp)
  801d10:	0009883a 	mov	r4,zero
  801d14:	000b883a 	mov	r5,zero
  801d18:	a9800017 	ldw	r6,0(r21)
  801d1c:	a9c00117 	ldw	r7,4(r21)
  801d20:	ad7ffe04 	addi	r21,r21,-8
  801d24:	08030680 	call	803068 <__adddf3>
  801d28:	1009883a 	mov	r4,r2
  801d2c:	180b883a 	mov	r5,r3
  801d30:	8d7ff91e 	bne	r17,r21,801d18 <__kernel_rem_pio2+0xa00>
  801d34:	da000217 	ldw	r8,8(sp)
  801d38:	d9c04717 	ldw	r7,284(sp)
  801d3c:	d8c04817 	ldw	r3,288(sp)
  801d40:	d9804917 	ldw	r6,292(sp)
  801d44:	d8804a17 	ldw	r2,296(sp)
  801d48:	4000861e 	bne	r8,zero,801f64 <__kernel_rem_pio2+0xc4c>
  801d4c:	da000917 	ldw	r8,36(sp)
  801d50:	41c00015 	stw	r7,0(r8)
  801d54:	40c00115 	stw	r3,4(r8)
  801d58:	41800215 	stw	r6,8(r8)
  801d5c:	40800315 	stw	r2,12(r8)
  801d60:	41000415 	stw	r4,16(r8)
  801d64:	41400515 	stw	r5,20(r8)
  801d68:	003f8d06 	br	801ba0 <__kernel_rem_pio2+0x888>
  801d6c:	88bfffc4 	addi	r2,r17,-1
  801d70:	100490ba 	slli	r2,r2,2
  801d74:	01402034 	movhi	r5,128
  801d78:	003ed106 	br	8018c0 <__kernel_rem_pio2+0x5a8>
  801d7c:	a5000044 	addi	r20,r20,1
  801d80:	05400084 	movi	r21,2
  801d84:	047e9e16 	blt	zero,r17,801800 <__kernel_rem_pio2+0x4e8>
  801d88:	480f883a 	mov	r7,r9
  801d8c:	900d883a 	mov	r6,r18
  801d90:	0009883a 	mov	r4,zero
  801d94:	014ffc34 	movhi	r5,16368
  801d98:	0804c2c0 	call	804c2c <__subdf3>
  801d9c:	1027883a 	mov	r19,r2
  801da0:	1813883a 	mov	r9,r3
  801da4:	003e3506 	br	80167c <__kernel_rem_pio2+0x364>
  801da8:	00fffa04 	movi	r3,-24
  801dac:	d8000615 	stw	zero,24(sp)
  801db0:	003d7a06 	br	80139c <__kernel_rem_pio2+0x84>
  801db4:	ddc00317 	ldw	r23,12(sp)
  801db8:	9809883a 	mov	r4,r19
  801dbc:	480b883a 	mov	r5,r9
  801dc0:	05cdc83a 	sub	r6,zero,r23
  801dc4:	dd400215 	stw	r21,8(sp)
  801dc8:	080249c0 	call	80249c <scalbn>
  801dcc:	000d883a 	mov	r6,zero
  801dd0:	01d05c34 	movhi	r7,16752
  801dd4:	1009883a 	mov	r4,r2
  801dd8:	180b883a 	mov	r5,r3
  801ddc:	1025883a 	mov	r18,r2
  801de0:	1821883a 	mov	r16,r3
  801de4:	08043940 	call	804394 <__gedf2>
  801de8:	10005516 	blt	r2,zero,801f40 <__kernel_rem_pio2+0xc28>
  801dec:	000d883a 	mov	r6,zero
  801df0:	01cf9c34 	movhi	r7,15984
  801df4:	9009883a 	mov	r4,r18
  801df8:	800b883a 	mov	r5,r16
  801dfc:	08044840 	call	804484 <__muldf3>
  801e00:	180b883a 	mov	r5,r3
  801e04:	1009883a 	mov	r4,r2
  801e08:	882c90ba 	slli	r22,r17,2
  801e0c:	08055600 	call	805560 <__fixdfsi>
  801e10:	1009883a 	mov	r4,r2
  801e14:	102b883a 	mov	r21,r2
  801e18:	d8809704 	addi	r2,sp,604
  801e1c:	15ad883a 	add	r22,r2,r22
  801e20:	08055e00 	call	8055e0 <__floatsidf>
  801e24:	000d883a 	mov	r6,zero
  801e28:	01d05c34 	movhi	r7,16752
  801e2c:	1009883a 	mov	r4,r2
  801e30:	180b883a 	mov	r5,r3
  801e34:	08044840 	call	804484 <__muldf3>
  801e38:	100d883a 	mov	r6,r2
  801e3c:	180f883a 	mov	r7,r3
  801e40:	9009883a 	mov	r4,r18
  801e44:	800b883a 	mov	r5,r16
  801e48:	0804c2c0 	call	804c2c <__subdf3>
  801e4c:	180b883a 	mov	r5,r3
  801e50:	1009883a 	mov	r4,r2
  801e54:	08055600 	call	805560 <__fixdfsi>
  801e58:	8cc00044 	addi	r19,r17,1
  801e5c:	980690ba 	slli	r3,r19,2
  801e60:	b0bf7415 	stw	r2,-560(r22)
  801e64:	b8800604 	addi	r2,r23,24
  801e68:	d8800315 	stw	r2,12(sp)
  801e6c:	d8809704 	addi	r2,sp,604
  801e70:	10c7883a 	add	r3,r2,r3
  801e74:	1d7f7415 	stw	r21,-560(r3)
  801e78:	003ed806 	br	8019dc <__kernel_rem_pio2+0x6c4>
  801e7c:	0015883a 	mov	r10,zero
  801e80:	003e8606 	br	80189c <__kernel_rem_pio2+0x584>
  801e84:	d8c00317 	ldw	r3,12(sp)
  801e88:	d8804704 	addi	r2,sp,284
  801e8c:	10eb883a 	add	r21,r2,r3
  801e90:	0005883a 	mov	r2,zero
  801e94:	0007883a 	mov	r3,zero
  801e98:	1009883a 	mov	r4,r2
  801e9c:	180b883a 	mov	r5,r3
  801ea0:	a9800017 	ldw	r6,0(r21)
  801ea4:	a9c00117 	ldw	r7,4(r21)
  801ea8:	08030680 	call	803068 <__adddf3>
  801eac:	a80d883a 	mov	r6,r21
  801eb0:	1009883a 	mov	r4,r2
  801eb4:	d8804704 	addi	r2,sp,284
  801eb8:	180b883a 	mov	r5,r3
  801ebc:	ad7ffe04 	addi	r21,r21,-8
  801ec0:	11bff71e 	bne	r2,r6,801ea0 <__kernel_rem_pio2+0xb88>
  801ec4:	2005883a 	mov	r2,r4
  801ec8:	d9000217 	ldw	r4,8(sp)
  801ecc:	2000291e 	bne	r4,zero,801f74 <__kernel_rem_pio2+0xc5c>
  801ed0:	d9800917 	ldw	r6,36(sp)
  801ed4:	d9004717 	ldw	r4,284(sp)
  801ed8:	d9404817 	ldw	r5,288(sp)
  801edc:	30800015 	stw	r2,0(r6)
  801ee0:	30c00115 	stw	r3,4(r6)
  801ee4:	180f883a 	mov	r7,r3
  801ee8:	100d883a 	mov	r6,r2
  801eec:	0804c2c0 	call	804c2c <__subdf3>
  801ef0:	1009883a 	mov	r4,r2
  801ef4:	180b883a 	mov	r5,r3
  801ef8:	04c00d0e 	bge	zero,r19,801f30 <__kernel_rem_pio2+0xc18>
  801efc:	dc004904 	addi	r16,sp,292
  801f00:	04400044 	movi	r17,1
  801f04:	81800017 	ldw	r6,0(r16)
  801f08:	81c00117 	ldw	r7,4(r16)
  801f0c:	8c400044 	addi	r17,r17,1
  801f10:	84000204 	addi	r16,r16,8
  801f14:	08030680 	call	803068 <__adddf3>
  801f18:	1009883a 	mov	r4,r2
  801f1c:	180b883a 	mov	r5,r3
  801f20:	9c7ff80e 	bge	r19,r17,801f04 <__kernel_rem_pio2+0xbec>
  801f24:	d8800217 	ldw	r2,8(sp)
  801f28:	10000126 	beq	r2,zero,801f30 <__kernel_rem_pio2+0xc18>
  801f2c:	2960003c 	xorhi	r5,r5,32768
  801f30:	d8800917 	ldw	r2,36(sp)
  801f34:	11000215 	stw	r4,8(r2)
  801f38:	11400315 	stw	r5,12(r2)
  801f3c:	003f1806 	br	801ba0 <__kernel_rem_pio2+0x888>
  801f40:	880490ba 	slli	r2,r17,2
  801f44:	800b883a 	mov	r5,r16
  801f48:	d8c09704 	addi	r3,sp,604
  801f4c:	9009883a 	mov	r4,r18
  801f50:	18a1883a 	add	r16,r3,r2
  801f54:	08055600 	call	805560 <__fixdfsi>
  801f58:	80bf7415 	stw	r2,-560(r16)
  801f5c:	8827883a 	mov	r19,r17
  801f60:	003e9e06 	br	8019dc <__kernel_rem_pio2+0x6c4>
  801f64:	18e0003c 	xorhi	r3,r3,32768
  801f68:	10a0003c 	xorhi	r2,r2,32768
  801f6c:	2960003c 	xorhi	r5,r5,32768
  801f70:	003f7606 	br	801d4c <__kernel_rem_pio2+0xa34>
  801f74:	d9c00917 	ldw	r7,36(sp)
  801f78:	d9004717 	ldw	r4,284(sp)
  801f7c:	d9404817 	ldw	r5,288(sp)
  801f80:	19a0003c 	xorhi	r6,r3,32768
  801f84:	39800115 	stw	r6,4(r7)
  801f88:	38800015 	stw	r2,0(r7)
  801f8c:	100d883a 	mov	r6,r2
  801f90:	180f883a 	mov	r7,r3
  801f94:	0804c2c0 	call	804c2c <__subdf3>
  801f98:	1009883a 	mov	r4,r2
  801f9c:	180b883a 	mov	r5,r3
  801fa0:	04ffd616 	blt	zero,r19,801efc <__kernel_rem_pio2+0xbe4>
  801fa4:	003fe106 	br	801f2c <__kernel_rem_pio2+0xc14>
  801fa8:	d880a117 	ldw	r2,644(sp)
  801fac:	108000c8 	cmpgei	r2,r2,3
  801fb0:	1000061e 	bne	r2,zero,801fcc <__kernel_rem_pio2+0xcb4>
  801fb4:	d880a117 	ldw	r2,644(sp)
  801fb8:	00800a16 	blt	zero,r2,801fe4 <__kernel_rem_pio2+0xccc>
  801fbc:	103ef81e 	bne	r2,zero,801ba0 <__kernel_rem_pio2+0x888>
  801fc0:	0009883a 	mov	r4,zero
  801fc4:	000b883a 	mov	r5,zero
  801fc8:	003eef06 	br	801b88 <__kernel_rem_pio2+0x870>
  801fcc:	d880a117 	ldw	r2,644(sp)
  801fd0:	108000e0 	cmpeqi	r2,r2,3
  801fd4:	103ef226 	beq	r2,zero,801ba0 <__kernel_rem_pio2+0x888>
  801fd8:	0009883a 	mov	r4,zero
  801fdc:	000b883a 	mov	r5,zero
  801fe0:	003f5406 	br	801d34 <__kernel_rem_pio2+0xa1c>
  801fe4:	0005883a 	mov	r2,zero
  801fe8:	0007883a 	mov	r3,zero
  801fec:	003fb606 	br	801ec8 <__kernel_rem_pio2+0xbb0>

00801ff0 <__kernel_sin>:
  801ff0:	02200034 	movhi	r8,32768
  801ff4:	defff304 	addi	sp,sp,-52
  801ff8:	423fffc4 	addi	r8,r8,-1
  801ffc:	dd400815 	stw	r21,32(sp)
  802000:	dd000715 	stw	r20,28(sp)
  802004:	dc400415 	stw	r17,16(sp)
  802008:	dc000315 	stw	r16,12(sp)
  80200c:	dfc00c15 	stw	ra,48(sp)
  802010:	df000b15 	stw	fp,44(sp)
  802014:	ddc00a15 	stw	r23,40(sp)
  802018:	dd800915 	stw	r22,36(sp)
  80201c:	dcc00615 	stw	r19,24(sp)
  802020:	dc800515 	stw	r18,20(sp)
  802024:	2a10703a 	and	r8,r5,r8
  802028:	00cf9034 	movhi	r3,15936
  80202c:	2821883a 	mov	r16,r5
  802030:	2023883a 	mov	r17,r4
  802034:	302b883a 	mov	r21,r6
  802038:	3829883a 	mov	r20,r7
  80203c:	40c0020e 	bge	r8,r3,802048 <__kernel_sin+0x58>
  802040:	08055600 	call	805560 <__fixdfsi>
  802044:	10009926 	beq	r2,zero,8022ac <__kernel_sin+0x2bc>
  802048:	880d883a 	mov	r6,r17
  80204c:	800f883a 	mov	r7,r16
  802050:	8809883a 	mov	r4,r17
  802054:	800b883a 	mov	r5,r16
  802058:	08044840 	call	804484 <__muldf3>
  80205c:	100d883a 	mov	r6,r2
  802060:	180f883a 	mov	r7,r3
  802064:	8809883a 	mov	r4,r17
  802068:	800b883a 	mov	r5,r16
  80206c:	1027883a 	mov	r19,r2
  802070:	1825883a 	mov	r18,r3
  802074:	08044840 	call	804484 <__muldf3>
  802078:	0196b434 	movhi	r6,23248
  80207c:	01cf79b4 	movhi	r7,15846
  802080:	31b55f04 	addi	r6,r6,-10884
  802084:	39f64e84 	addi	r7,r7,-9926
  802088:	9809883a 	mov	r4,r19
  80208c:	900b883a 	mov	r5,r18
  802090:	102f883a 	mov	r23,r2
  802094:	182d883a 	mov	r22,r3
  802098:	08044840 	call	804484 <__muldf3>
  80209c:	01a28b34 	movhi	r6,35372
  8020a0:	01cf96f4 	movhi	r7,15963
  8020a4:	31a73ac4 	addi	r6,r6,-25365
  8020a8:	39f97984 	addi	r7,r7,-6682
  8020ac:	1009883a 	mov	r4,r2
  8020b0:	180b883a 	mov	r5,r3
  8020b4:	0804c2c0 	call	804c2c <__subdf3>
  8020b8:	980d883a 	mov	r6,r19
  8020bc:	900f883a 	mov	r7,r18
  8020c0:	1009883a 	mov	r4,r2
  8020c4:	180b883a 	mov	r5,r3
  8020c8:	08044840 	call	804484 <__muldf3>
  8020cc:	0195ecb4 	movhi	r6,22450
  8020d0:	01cfb1f4 	movhi	r7,16071
  8020d4:	31bf9f44 	addi	r6,r6,-387
  8020d8:	39c778c4 	addi	r7,r7,7651
  8020dc:	1009883a 	mov	r4,r2
  8020e0:	180b883a 	mov	r5,r3
  8020e4:	08030680 	call	803068 <__adddf3>
  8020e8:	980d883a 	mov	r6,r19
  8020ec:	900f883a 	mov	r7,r18
  8020f0:	1009883a 	mov	r4,r2
  8020f4:	180b883a 	mov	r5,r3
  8020f8:	08044840 	call	804484 <__muldf3>
  8020fc:	01867074 	movhi	r6,6593
  802100:	01cfcab4 	movhi	r7,16170
  802104:	31987544 	addi	r6,r6,25045
  802108:	39c06804 	addi	r7,r7,416
  80210c:	1009883a 	mov	r4,r2
  802110:	180b883a 	mov	r5,r3
  802114:	0804c2c0 	call	804c2c <__subdf3>
  802118:	980d883a 	mov	r6,r19
  80211c:	900f883a 	mov	r7,r18
  802120:	1009883a 	mov	r4,r2
  802124:	180b883a 	mov	r5,r3
  802128:	08044840 	call	804484 <__muldf3>
  80212c:	01844474 	movhi	r6,4369
  802130:	01cfe074 	movhi	r7,16257
  802134:	31be2984 	addi	r6,r6,-1882
  802138:	39c44444 	addi	r7,r7,4369
  80213c:	1009883a 	mov	r4,r2
  802140:	180b883a 	mov	r5,r3
  802144:	08030680 	call	803068 <__adddf3>
  802148:	1011883a 	mov	r8,r2
  80214c:	d8800d17 	ldw	r2,52(sp)
  802150:	1839883a 	mov	fp,r3
  802154:	10003e26 	beq	r2,zero,802250 <__kernel_sin+0x260>
  802158:	000d883a 	mov	r6,zero
  80215c:	01cff834 	movhi	r7,16352
  802160:	a809883a 	mov	r4,r21
  802164:	a00b883a 	mov	r5,r20
  802168:	da000215 	stw	r8,8(sp)
  80216c:	08044840 	call	804484 <__muldf3>
  802170:	da000217 	ldw	r8,8(sp)
  802174:	e00f883a 	mov	r7,fp
  802178:	b809883a 	mov	r4,r23
  80217c:	400d883a 	mov	r6,r8
  802180:	b00b883a 	mov	r5,r22
  802184:	d8800115 	stw	r2,4(sp)
  802188:	d8c00015 	stw	r3,0(sp)
  80218c:	08044840 	call	804484 <__muldf3>
  802190:	da800117 	ldw	r10,4(sp)
  802194:	da400017 	ldw	r9,0(sp)
  802198:	100d883a 	mov	r6,r2
  80219c:	5009883a 	mov	r4,r10
  8021a0:	480b883a 	mov	r5,r9
  8021a4:	180f883a 	mov	r7,r3
  8021a8:	0804c2c0 	call	804c2c <__subdf3>
  8021ac:	980d883a 	mov	r6,r19
  8021b0:	900f883a 	mov	r7,r18
  8021b4:	1009883a 	mov	r4,r2
  8021b8:	180b883a 	mov	r5,r3
  8021bc:	08044840 	call	804484 <__muldf3>
  8021c0:	a80d883a 	mov	r6,r21
  8021c4:	a00f883a 	mov	r7,r20
  8021c8:	1009883a 	mov	r4,r2
  8021cc:	180b883a 	mov	r5,r3
  8021d0:	0804c2c0 	call	804c2c <__subdf3>
  8021d4:	01955574 	movhi	r6,21845
  8021d8:	01cff174 	movhi	r7,16325
  8021dc:	31955244 	addi	r6,r6,21833
  8021e0:	39d55544 	addi	r7,r7,21845
  8021e4:	b809883a 	mov	r4,r23
  8021e8:	b00b883a 	mov	r5,r22
  8021ec:	1027883a 	mov	r19,r2
  8021f0:	1825883a 	mov	r18,r3
  8021f4:	08044840 	call	804484 <__muldf3>
  8021f8:	100d883a 	mov	r6,r2
  8021fc:	180f883a 	mov	r7,r3
  802200:	9809883a 	mov	r4,r19
  802204:	900b883a 	mov	r5,r18
  802208:	08030680 	call	803068 <__adddf3>
  80220c:	100d883a 	mov	r6,r2
  802210:	180f883a 	mov	r7,r3
  802214:	8809883a 	mov	r4,r17
  802218:	800b883a 	mov	r5,r16
  80221c:	0804c2c0 	call	804c2c <__subdf3>
  802220:	dfc00c17 	ldw	ra,48(sp)
  802224:	df000b17 	ldw	fp,44(sp)
  802228:	ddc00a17 	ldw	r23,40(sp)
  80222c:	dd800917 	ldw	r22,36(sp)
  802230:	dd400817 	ldw	r21,32(sp)
  802234:	dd000717 	ldw	r20,28(sp)
  802238:	dcc00617 	ldw	r19,24(sp)
  80223c:	dc800517 	ldw	r18,20(sp)
  802240:	dc400417 	ldw	r17,16(sp)
  802244:	dc000317 	ldw	r16,12(sp)
  802248:	dec00d04 	addi	sp,sp,52
  80224c:	f800283a 	ret
  802250:	400d883a 	mov	r6,r8
  802254:	9809883a 	mov	r4,r19
  802258:	900b883a 	mov	r5,r18
  80225c:	180f883a 	mov	r7,r3
  802260:	08044840 	call	804484 <__muldf3>
  802264:	01955574 	movhi	r6,21845
  802268:	01cff174 	movhi	r7,16325
  80226c:	31955244 	addi	r6,r6,21833
  802270:	39d55544 	addi	r7,r7,21845
  802274:	1009883a 	mov	r4,r2
  802278:	180b883a 	mov	r5,r3
  80227c:	0804c2c0 	call	804c2c <__subdf3>
  802280:	b80d883a 	mov	r6,r23
  802284:	b00f883a 	mov	r7,r22
  802288:	1009883a 	mov	r4,r2
  80228c:	180b883a 	mov	r5,r3
  802290:	08044840 	call	804484 <__muldf3>
  802294:	880d883a 	mov	r6,r17
  802298:	800f883a 	mov	r7,r16
  80229c:	1009883a 	mov	r4,r2
  8022a0:	180b883a 	mov	r5,r3
  8022a4:	08030680 	call	803068 <__adddf3>
  8022a8:	003fdd06 	br	802220 <__kernel_sin+0x230>
  8022ac:	8805883a 	mov	r2,r17
  8022b0:	8007883a 	mov	r3,r16
  8022b4:	003fda06 	br	802220 <__kernel_sin+0x230>

008022b8 <floor>:
  8022b8:	280fd53a 	srai	r7,r5,20
  8022bc:	defffb04 	addi	sp,sp,-20
  8022c0:	dc800215 	stw	r18,8(sp)
  8022c4:	39c1ffcc 	andi	r7,r7,2047
  8022c8:	3cbf0044 	addi	r18,r7,-1023
  8022cc:	dc400115 	stw	r17,4(sp)
  8022d0:	dc000015 	stw	r16,0(sp)
  8022d4:	dfc00415 	stw	ra,16(sp)
  8022d8:	dcc00315 	stw	r19,12(sp)
  8022dc:	90800508 	cmpgei	r2,r18,20
  8022e0:	2821883a 	mov	r16,r5
  8022e4:	200d883a 	mov	r6,r4
  8022e8:	2023883a 	mov	r17,r4
  8022ec:	10001c1e 	bne	r2,zero,802360 <floor+0xa8>
  8022f0:	90003c16 	blt	r18,zero,8023e4 <floor+0x12c>
  8022f4:	00800434 	movhi	r2,16
  8022f8:	10bfffc4 	addi	r2,r2,-1
  8022fc:	14a7d83a 	sra	r19,r2,r18
  802300:	2cc4703a 	and	r2,r5,r19
  802304:	1104b03a 	or	r2,r2,r4
  802308:	10001926 	beq	r2,zero,802370 <floor+0xb8>
  80230c:	01a20034 	movhi	r6,34816
  802310:	01df8e34 	movhi	r7,32312
  802314:	319d6704 	addi	r6,r6,30108
  802318:	39f90f04 	addi	r7,r7,-7108
  80231c:	08030680 	call	803068 <__adddf3>
  802320:	000d883a 	mov	r6,zero
  802324:	000f883a 	mov	r7,zero
  802328:	1009883a 	mov	r4,r2
  80232c:	180b883a 	mov	r5,r3
  802330:	08043940 	call	804394 <__gedf2>
  802334:	0080070e 	bge	zero,r2,802354 <floor+0x9c>
  802338:	8000030e 	bge	r16,zero,802348 <floor+0x90>
  80233c:	00800434 	movhi	r2,16
  802340:	14a5d83a 	sra	r18,r2,r18
  802344:	9421883a 	add	r16,r18,r16
  802348:	04c4303a 	nor	r2,zero,r19
  80234c:	80a0703a 	and	r16,r16,r2
  802350:	0023883a 	mov	r17,zero
  802354:	8805883a 	mov	r2,r17
  802358:	8007883a 	mov	r3,r16
  80235c:	00000606 	br	802378 <floor+0xc0>
  802360:	90800d10 	cmplti	r2,r18,52
  802364:	10000b1e 	bne	r2,zero,802394 <floor+0xdc>
  802368:	94810018 	cmpnei	r18,r18,1024
  80236c:	90002c26 	beq	r18,zero,802420 <floor+0x168>
  802370:	3005883a 	mov	r2,r6
  802374:	8007883a 	mov	r3,r16
  802378:	dfc00417 	ldw	ra,16(sp)
  80237c:	dcc00317 	ldw	r19,12(sp)
  802380:	dc800217 	ldw	r18,8(sp)
  802384:	dc400117 	ldw	r17,4(sp)
  802388:	dc000017 	ldw	r16,0(sp)
  80238c:	dec00504 	addi	sp,sp,20
  802390:	f800283a 	ret
  802394:	39fefb44 	addi	r7,r7,-1043
  802398:	04ffffc4 	movi	r19,-1
  80239c:	99e6d83a 	srl	r19,r19,r7
  8023a0:	9904703a 	and	r2,r19,r4
  8023a4:	10002126 	beq	r2,zero,80242c <floor+0x174>
  8023a8:	01a20034 	movhi	r6,34816
  8023ac:	01df8e34 	movhi	r7,32312
  8023b0:	319d6704 	addi	r6,r6,30108
  8023b4:	39f90f04 	addi	r7,r7,-7108
  8023b8:	08030680 	call	803068 <__adddf3>
  8023bc:	000d883a 	mov	r6,zero
  8023c0:	000f883a 	mov	r7,zero
  8023c4:	1009883a 	mov	r4,r2
  8023c8:	180b883a 	mov	r5,r3
  8023cc:	08043940 	call	804394 <__gedf2>
  8023d0:	00bfe00e 	bge	zero,r2,802354 <floor+0x9c>
  8023d4:	80002016 	blt	r16,zero,802458 <floor+0x1a0>
  8023d8:	04ce303a 	nor	r7,zero,r19
  8023dc:	89e2703a 	and	r17,r17,r7
  8023e0:	003fdc06 	br	802354 <floor+0x9c>
  8023e4:	01a20034 	movhi	r6,34816
  8023e8:	01df8e34 	movhi	r7,32312
  8023ec:	319d6704 	addi	r6,r6,30108
  8023f0:	39f90f04 	addi	r7,r7,-7108
  8023f4:	08030680 	call	803068 <__adddf3>
  8023f8:	000d883a 	mov	r6,zero
  8023fc:	000f883a 	mov	r7,zero
  802400:	1009883a 	mov	r4,r2
  802404:	180b883a 	mov	r5,r3
  802408:	08043940 	call	804394 <__gedf2>
  80240c:	00bfd10e 	bge	zero,r2,802354 <floor+0x9c>
  802410:	80000916 	blt	r16,zero,802438 <floor+0x180>
  802414:	0023883a 	mov	r17,zero
  802418:	0021883a 	mov	r16,zero
  80241c:	003fcd06 	br	802354 <floor+0x9c>
  802420:	280f883a 	mov	r7,r5
  802424:	08030680 	call	803068 <__adddf3>
  802428:	003fd306 	br	802378 <floor+0xc0>
  80242c:	2807883a 	mov	r3,r5
  802430:	2005883a 	mov	r2,r4
  802434:	003fd006 	br	802378 <floor+0xc0>
  802438:	00a00034 	movhi	r2,32768
  80243c:	10bfffc4 	addi	r2,r2,-1
  802440:	8084703a 	and	r2,r16,r2
  802444:	1462b03a 	or	r17,r2,r17
  802448:	88000e26 	beq	r17,zero,802484 <floor+0x1cc>
  80244c:	0023883a 	mov	r17,zero
  802450:	042ffc34 	movhi	r16,49136
  802454:	003fbf06 	br	802354 <floor+0x9c>
  802458:	90800518 	cmpnei	r2,r18,20
  80245c:	10000b26 	beq	r2,zero,80248c <floor+0x1d4>
  802460:	00800d04 	movi	r2,52
  802464:	14a5c83a 	sub	r18,r2,r18
  802468:	00800044 	movi	r2,1
  80246c:	1484983a 	sll	r2,r2,r18
  802470:	1445883a 	add	r2,r2,r17
  802474:	1440072e 	bgeu	r2,r17,802494 <floor+0x1dc>
  802478:	84000044 	addi	r16,r16,1
  80247c:	1023883a 	mov	r17,r2
  802480:	003fd506 	br	8023d8 <floor+0x120>
  802484:	0023883a 	mov	r17,zero
  802488:	003fb206 	br	802354 <floor+0x9c>
  80248c:	84000044 	addi	r16,r16,1
  802490:	003fd106 	br	8023d8 <floor+0x120>
  802494:	1023883a 	mov	r17,r2
  802498:	003fcf06 	br	8023d8 <floor+0x120>

0080249c <scalbn>:
  80249c:	2807d53a 	srai	r3,r5,20
  8024a0:	defffe04 	addi	sp,sp,-8
  8024a4:	dc000015 	stw	r16,0(sp)
  8024a8:	dfc00115 	stw	ra,4(sp)
  8024ac:	18c1ffcc 	andi	r3,r3,2047
  8024b0:	280f883a 	mov	r7,r5
  8024b4:	2005883a 	mov	r2,r4
  8024b8:	3021883a 	mov	r16,r6
  8024bc:	1800241e 	bne	r3,zero,802550 <scalbn+0xb4>
  8024c0:	00e00034 	movhi	r3,32768
  8024c4:	18ffffc4 	addi	r3,r3,-1
  8024c8:	28c6703a 	and	r3,r5,r3
  8024cc:	1906b03a 	or	r3,r3,r4
  8024d0:	18003626 	beq	r3,zero,8025ac <scalbn+0x110>
  8024d4:	000d883a 	mov	r6,zero
  8024d8:	01d0d434 	movhi	r7,17232
  8024dc:	08044840 	call	804484 <__muldf3>
  8024e0:	01bffff4 	movhi	r6,65535
  8024e4:	318f2c04 	addi	r6,r6,15536
  8024e8:	1009883a 	mov	r4,r2
  8024ec:	180f883a 	mov	r7,r3
  8024f0:	81804d16 	blt	r16,r6,802628 <scalbn+0x18c>
  8024f4:	1807d53a 	srai	r3,r3,20
  8024f8:	3811883a 	mov	r8,r7
  8024fc:	18c1ffcc 	andi	r3,r3,2047
  802500:	18fff284 	addi	r3,r3,-54
  802504:	80c7883a 	add	r3,r16,r3
  802508:	1901ffd0 	cmplti	r4,r3,2047
  80250c:	20001926 	beq	r4,zero,802574 <scalbn+0xd8>
  802510:	00c03c16 	blt	zero,r3,802604 <scalbn+0x168>
  802514:	193ff2c8 	cmpgei	r4,r3,-53
  802518:	20002c1e 	bne	r4,zero,8025cc <scalbn+0x130>
  80251c:	00b0d414 	movui	r2,50000
  802520:	14001416 	blt	r2,r16,802574 <scalbn+0xd8>
  802524:	0130be74 	movhi	r4,49913
  802528:	01406974 	movhi	r5,421
  80252c:	213cd644 	addi	r4,r4,-3239
  802530:	295b87c4 	addi	r5,r5,28191
  802534:	38004616 	blt	r7,zero,802650 <scalbn+0x1b4>
  802538:	01b0be74 	movhi	r6,49913
  80253c:	01c06974 	movhi	r7,421
  802540:	31bcd644 	addi	r6,r6,-3239
  802544:	39db87c4 	addi	r7,r7,28191
  802548:	08044840 	call	804484 <__muldf3>
  80254c:	00001306 	br	80259c <scalbn+0x100>
  802550:	1981ffd8 	cmpnei	r6,r3,2047
  802554:	2811883a 	mov	r8,r5
  802558:	303fea1e 	bne	r6,zero,802504 <scalbn+0x68>
  80255c:	200d883a 	mov	r6,r4
  802560:	08030680 	call	803068 <__adddf3>
  802564:	dfc00117 	ldw	ra,4(sp)
  802568:	dc000017 	ldw	r16,0(sp)
  80256c:	dec00204 	addi	sp,sp,8
  802570:	f800283a 	ret
  802574:	01220034 	movhi	r4,34816
  802578:	015f8e34 	movhi	r5,32312
  80257c:	211d6704 	addi	r4,r4,30108
  802580:	29790f04 	addi	r5,r5,-7108
  802584:	38000e16 	blt	r7,zero,8025c0 <scalbn+0x124>
  802588:	01a20034 	movhi	r6,34816
  80258c:	01df8e34 	movhi	r7,32312
  802590:	319d6704 	addi	r6,r6,30108
  802594:	39f90f04 	addi	r7,r7,-7108
  802598:	08044840 	call	804484 <__muldf3>
  80259c:	dfc00117 	ldw	ra,4(sp)
  8025a0:	dc000017 	ldw	r16,0(sp)
  8025a4:	dec00204 	addi	sp,sp,8
  8025a8:	f800283a 	ret
  8025ac:	2807883a 	mov	r3,r5
  8025b0:	dfc00117 	ldw	ra,4(sp)
  8025b4:	dc000017 	ldw	r16,0(sp)
  8025b8:	dec00204 	addi	sp,sp,8
  8025bc:	f800283a 	ret
  8025c0:	017f8e34 	movhi	r5,65080
  8025c4:	29790f04 	addi	r5,r5,-7108
  8025c8:	003fef06 	br	802588 <scalbn+0xec>
  8025cc:	18c00d84 	addi	r3,r3,54
  8025d0:	1806953a 	slli	r3,r3,20
  8025d4:	01600434 	movhi	r5,32784
  8025d8:	297fffc4 	addi	r5,r5,-1
  8025dc:	414a703a 	and	r5,r8,r5
  8025e0:	000d883a 	mov	r6,zero
  8025e4:	01cf2434 	movhi	r7,15504
  8025e8:	1009883a 	mov	r4,r2
  8025ec:	194ab03a 	or	r5,r3,r5
  8025f0:	08044840 	call	804484 <__muldf3>
  8025f4:	dfc00117 	ldw	ra,4(sp)
  8025f8:	dc000017 	ldw	r16,0(sp)
  8025fc:	dec00204 	addi	sp,sp,8
  802600:	f800283a 	ret
  802604:	1806953a 	slli	r3,r3,20
  802608:	01e00434 	movhi	r7,32784
  80260c:	39ffffc4 	addi	r7,r7,-1
  802610:	41ce703a 	and	r7,r8,r7
  802614:	38c6b03a 	or	r3,r7,r3
  802618:	dfc00117 	ldw	ra,4(sp)
  80261c:	dc000017 	ldw	r16,0(sp)
  802620:	dec00204 	addi	sp,sp,8
  802624:	f800283a 	ret
  802628:	01b0be74 	movhi	r6,49913
  80262c:	01c06974 	movhi	r7,421
  802630:	31bcd644 	addi	r6,r6,-3239
  802634:	39db87c4 	addi	r7,r7,28191
  802638:	180b883a 	mov	r5,r3
  80263c:	08044840 	call	804484 <__muldf3>
  802640:	dfc00117 	ldw	ra,4(sp)
  802644:	dc000017 	ldw	r16,0(sp)
  802648:	dec00204 	addi	sp,sp,8
  80264c:	f800283a 	ret
  802650:	01606974 	movhi	r5,33189
  802654:	295b87c4 	addi	r5,r5,28191
  802658:	003fb706 	br	802538 <scalbn+0x9c>

0080265c <__divsi3>:
  80265c:	20001a16 	blt	r4,zero,8026c8 <__divsi3+0x6c>
  802660:	000f883a 	mov	r7,zero
  802664:	2800020e 	bge	r5,zero,802670 <__divsi3+0x14>
  802668:	014bc83a 	sub	r5,zero,r5
  80266c:	39c0005c 	xori	r7,r7,1
  802670:	200d883a 	mov	r6,r4
  802674:	00c00044 	movi	r3,1
  802678:	2900092e 	bgeu	r5,r4,8026a0 <__divsi3+0x44>
  80267c:	00800804 	movi	r2,32
  802680:	00c00044 	movi	r3,1
  802684:	00000106 	br	80268c <__divsi3+0x30>
  802688:	10001226 	beq	r2,zero,8026d4 <__divsi3+0x78>
  80268c:	294b883a 	add	r5,r5,r5
  802690:	10bfffc4 	addi	r2,r2,-1
  802694:	18c7883a 	add	r3,r3,r3
  802698:	293ffb36 	bltu	r5,r4,802688 <__divsi3+0x2c>
  80269c:	18000d26 	beq	r3,zero,8026d4 <__divsi3+0x78>
  8026a0:	0005883a 	mov	r2,zero
  8026a4:	31400236 	bltu	r6,r5,8026b0 <__divsi3+0x54>
  8026a8:	314dc83a 	sub	r6,r6,r5
  8026ac:	10c4b03a 	or	r2,r2,r3
  8026b0:	1806d07a 	srli	r3,r3,1
  8026b4:	280ad07a 	srli	r5,r5,1
  8026b8:	183ffa1e 	bne	r3,zero,8026a4 <__divsi3+0x48>
  8026bc:	38000126 	beq	r7,zero,8026c4 <__divsi3+0x68>
  8026c0:	0085c83a 	sub	r2,zero,r2
  8026c4:	f800283a 	ret
  8026c8:	0109c83a 	sub	r4,zero,r4
  8026cc:	01c00044 	movi	r7,1
  8026d0:	003fe406 	br	802664 <__divsi3+0x8>
  8026d4:	0005883a 	mov	r2,zero
  8026d8:	003ff806 	br	8026bc <__divsi3+0x60>

008026dc <__modsi3>:
  8026dc:	20001916 	blt	r4,zero,802744 <__modsi3+0x68>
  8026e0:	000f883a 	mov	r7,zero
  8026e4:	2005883a 	mov	r2,r4
  8026e8:	2800010e 	bge	r5,zero,8026f0 <__modsi3+0x14>
  8026ec:	014bc83a 	sub	r5,zero,r5
  8026f0:	00c00044 	movi	r3,1
  8026f4:	2900092e 	bgeu	r5,r4,80271c <__modsi3+0x40>
  8026f8:	01800804 	movi	r6,32
  8026fc:	00c00044 	movi	r3,1
  802700:	00000106 	br	802708 <__modsi3+0x2c>
  802704:	30000d26 	beq	r6,zero,80273c <__modsi3+0x60>
  802708:	294b883a 	add	r5,r5,r5
  80270c:	31bfffc4 	addi	r6,r6,-1
  802710:	18c7883a 	add	r3,r3,r3
  802714:	293ffb36 	bltu	r5,r4,802704 <__modsi3+0x28>
  802718:	18000826 	beq	r3,zero,80273c <__modsi3+0x60>
  80271c:	1806d07a 	srli	r3,r3,1
  802720:	11400136 	bltu	r2,r5,802728 <__modsi3+0x4c>
  802724:	1145c83a 	sub	r2,r2,r5
  802728:	280ad07a 	srli	r5,r5,1
  80272c:	183ffb1e 	bne	r3,zero,80271c <__modsi3+0x40>
  802730:	38000126 	beq	r7,zero,802738 <__modsi3+0x5c>
  802734:	0085c83a 	sub	r2,zero,r2
  802738:	f800283a 	ret
  80273c:	2005883a 	mov	r2,r4
  802740:	003ffb06 	br	802730 <__modsi3+0x54>
  802744:	0109c83a 	sub	r4,zero,r4
  802748:	01c00044 	movi	r7,1
  80274c:	003fe506 	br	8026e4 <__modsi3+0x8>

00802750 <__udivsi3>:
  802750:	200d883a 	mov	r6,r4
  802754:	2900152e 	bgeu	r5,r4,8027ac <__udivsi3+0x5c>
  802758:	28001416 	blt	r5,zero,8027ac <__udivsi3+0x5c>
  80275c:	00800804 	movi	r2,32
  802760:	00c00044 	movi	r3,1
  802764:	00000206 	br	802770 <__udivsi3+0x20>
  802768:	10000e26 	beq	r2,zero,8027a4 <__udivsi3+0x54>
  80276c:	28000516 	blt	r5,zero,802784 <__udivsi3+0x34>
  802770:	294b883a 	add	r5,r5,r5
  802774:	10bfffc4 	addi	r2,r2,-1
  802778:	18c7883a 	add	r3,r3,r3
  80277c:	293ffa36 	bltu	r5,r4,802768 <__udivsi3+0x18>
  802780:	18000826 	beq	r3,zero,8027a4 <__udivsi3+0x54>
  802784:	0005883a 	mov	r2,zero
  802788:	31400236 	bltu	r6,r5,802794 <__udivsi3+0x44>
  80278c:	314dc83a 	sub	r6,r6,r5
  802790:	10c4b03a 	or	r2,r2,r3
  802794:	1806d07a 	srli	r3,r3,1
  802798:	280ad07a 	srli	r5,r5,1
  80279c:	183ffa1e 	bne	r3,zero,802788 <__udivsi3+0x38>
  8027a0:	f800283a 	ret
  8027a4:	0005883a 	mov	r2,zero
  8027a8:	f800283a 	ret
  8027ac:	00c00044 	movi	r3,1
  8027b0:	003ff406 	br	802784 <__udivsi3+0x34>

008027b4 <__umodsi3>:
  8027b4:	2005883a 	mov	r2,r4
  8027b8:	2900132e 	bgeu	r5,r4,802808 <__umodsi3+0x54>
  8027bc:	28001216 	blt	r5,zero,802808 <__umodsi3+0x54>
  8027c0:	01800804 	movi	r6,32
  8027c4:	00c00044 	movi	r3,1
  8027c8:	00000206 	br	8027d4 <__umodsi3+0x20>
  8027cc:	30000c26 	beq	r6,zero,802800 <__umodsi3+0x4c>
  8027d0:	28000516 	blt	r5,zero,8027e8 <__umodsi3+0x34>
  8027d4:	294b883a 	add	r5,r5,r5
  8027d8:	31bfffc4 	addi	r6,r6,-1
  8027dc:	18c7883a 	add	r3,r3,r3
  8027e0:	293ffa36 	bltu	r5,r4,8027cc <__umodsi3+0x18>
  8027e4:	18000626 	beq	r3,zero,802800 <__umodsi3+0x4c>
  8027e8:	1806d07a 	srli	r3,r3,1
  8027ec:	11400136 	bltu	r2,r5,8027f4 <__umodsi3+0x40>
  8027f0:	1145c83a 	sub	r2,r2,r5
  8027f4:	280ad07a 	srli	r5,r5,1
  8027f8:	183ffb1e 	bne	r3,zero,8027e8 <__umodsi3+0x34>
  8027fc:	f800283a 	ret
  802800:	2005883a 	mov	r2,r4
  802804:	f800283a 	ret
  802808:	00c00044 	movi	r3,1
  80280c:	003ff606 	br	8027e8 <__umodsi3+0x34>

00802810 <__addsf3>:
  802810:	280cd5fa 	srli	r6,r5,23
  802814:	2006d5fa 	srli	r3,r4,23
  802818:	2010d7fa 	srli	r8,r4,31
  80281c:	01c02034 	movhi	r7,128
  802820:	2818d7fa 	srli	r12,r5,31
  802824:	defffc04 	addi	sp,sp,-16
  802828:	39ffffc4 	addi	r7,r7,-1
  80282c:	3914703a 	and	r10,r7,r4
  802830:	32403fcc 	andi	r9,r6,255
  802834:	dc800215 	stw	r18,8(sp)
  802838:	dc400115 	stw	r17,4(sp)
  80283c:	395a703a 	and	r13,r7,r5
  802840:	1c403fcc 	andi	r17,r3,255
  802844:	dfc00315 	stw	ra,12(sp)
  802848:	dc000015 	stw	r16,0(sp)
  80284c:	501c90fa 	slli	r14,r10,3
  802850:	681690fa 	slli	r11,r13,3
  802854:	500d883a 	mov	r6,r10
  802858:	4025883a 	mov	r18,r8
  80285c:	8a45c83a 	sub	r2,r17,r9
  802860:	43004b26 	beq	r8,r12,802990 <__addsf3+0x180>
  802864:	0080390e 	bge	zero,r2,80294c <__addsf3+0x13c>
  802868:	48006326 	beq	r9,zero,8029f8 <__addsf3+0x1e8>
  80286c:	88c03fe0 	cmpeqi	r3,r17,255
  802870:	1800401e 	bne	r3,zero,802974 <__addsf3+0x164>
  802874:	5ac10034 	orhi	r11,r11,1024
  802878:	10c00708 	cmpgei	r3,r2,28
  80287c:	1800ab1e 	bne	r3,zero,802b2c <__addsf3+0x31c>
  802880:	01000804 	movi	r4,32
  802884:	2089c83a 	sub	r4,r4,r2
  802888:	5908983a 	sll	r4,r11,r4
  80288c:	5884d83a 	srl	r2,r11,r2
  802890:	2008c03a 	cmpne	r4,r4,zero
  802894:	1104b03a 	or	r2,r2,r4
  802898:	7085c83a 	sub	r2,r14,r2
  80289c:	10c1002c 	andhi	r3,r2,1024
  8028a0:	18008526 	beq	r3,zero,802ab8 <__addsf3+0x2a8>
  8028a4:	04010034 	movhi	r16,1024
  8028a8:	843fffc4 	addi	r16,r16,-1
  8028ac:	1420703a 	and	r16,r2,r16
  8028b0:	8009883a 	mov	r4,r16
  8028b4:	08059080 	call	805908 <__clzsi2>
  8028b8:	10fffec4 	addi	r3,r2,-5
  8028bc:	80c4983a 	sll	r2,r16,r3
  8028c0:	1c409516 	blt	r3,r17,802b18 <__addsf3+0x308>
  8028c4:	1c47c83a 	sub	r3,r3,r17
  8028c8:	1c000044 	addi	r16,r3,1
  8028cc:	01000804 	movi	r4,32
  8028d0:	2409c83a 	sub	r4,r4,r16
  8028d4:	1108983a 	sll	r4,r2,r4
  8028d8:	1404d83a 	srl	r2,r2,r16
  8028dc:	0023883a 	mov	r17,zero
  8028e0:	2008c03a 	cmpne	r4,r4,zero
  8028e4:	1104b03a 	or	r2,r2,r4
  8028e8:	10c001cc 	andi	r3,r2,7
  8028ec:	18000426 	beq	r3,zero,802900 <__addsf3+0xf0>
  8028f0:	10c003cc 	andi	r3,r2,15
  8028f4:	18c00120 	cmpeqi	r3,r3,4
  8028f8:	1800011e 	bne	r3,zero,802900 <__addsf3+0xf0>
  8028fc:	10800104 	addi	r2,r2,4
  802900:	10c1002c 	andhi	r3,r2,1024
  802904:	18006e26 	beq	r3,zero,802ac0 <__addsf3+0x2b0>
  802908:	88c00044 	addi	r3,r17,1
  80290c:	19003fe0 	cmpeqi	r4,r3,255
  802910:	20006d1e 	bne	r4,zero,802ac8 <__addsf3+0x2b8>
  802914:	100491ba 	slli	r2,r2,6
  802918:	100cd27a 	srli	r6,r2,9
  80291c:	18803fcc 	andi	r2,r3,255
  802920:	100495fa 	slli	r2,r2,23
  802924:	94803fcc 	andi	r18,r18,255
  802928:	902497fa 	slli	r18,r18,31
  80292c:	1184b03a 	or	r2,r2,r6
  802930:	1484b03a 	or	r2,r2,r18
  802934:	dfc00317 	ldw	ra,12(sp)
  802938:	dc800217 	ldw	r18,8(sp)
  80293c:	dc400117 	ldw	r17,4(sp)
  802940:	dc000017 	ldw	r16,0(sp)
  802944:	dec00404 	addi	sp,sp,16
  802948:	f800283a 	ret
  80294c:	10003026 	beq	r2,zero,802a10 <__addsf3+0x200>
  802950:	4c49c83a 	sub	r4,r9,r17
  802954:	88007f1e 	bne	r17,zero,802b54 <__addsf3+0x344>
  802958:	70003f26 	beq	r14,zero,802a58 <__addsf3+0x248>
  80295c:	213fffc4 	addi	r4,r4,-1
  802960:	2000b326 	beq	r4,zero,802c30 <__addsf3+0x420>
  802964:	48803fe0 	cmpeqi	r2,r9,255
  802968:	10007d26 	beq	r2,zero,802b60 <__addsf3+0x350>
  80296c:	6025883a 	mov	r18,r12
  802970:	6815883a 	mov	r10,r13
  802974:	50005426 	beq	r10,zero,802ac8 <__addsf3+0x2b8>
  802978:	00802034 	movhi	r2,128
  80297c:	51801034 	orhi	r6,r10,64
  802980:	10bfffc4 	addi	r2,r2,-1
  802984:	308c703a 	and	r6,r6,r2
  802988:	00ffffc4 	movi	r3,-1
  80298c:	003fe306 	br	80291c <__addsf3+0x10c>
  802990:	0080500e 	bge	zero,r2,802ad4 <__addsf3+0x2c4>
  802994:	48002a26 	beq	r9,zero,802a40 <__addsf3+0x230>
  802998:	88c03fe0 	cmpeqi	r3,r17,255
  80299c:	183ff51e 	bne	r3,zero,802974 <__addsf3+0x164>
  8029a0:	5ac10034 	orhi	r11,r11,1024
  8029a4:	10c00708 	cmpgei	r3,r2,28
  8029a8:	1800741e 	bne	r3,zero,802b7c <__addsf3+0x36c>
  8029ac:	00c00804 	movi	r3,32
  8029b0:	1887c83a 	sub	r3,r3,r2
  8029b4:	58c6983a 	sll	r3,r11,r3
  8029b8:	5884d83a 	srl	r2,r11,r2
  8029bc:	1806c03a 	cmpne	r3,r3,zero
  8029c0:	10c4b03a 	or	r2,r2,r3
  8029c4:	1385883a 	add	r2,r2,r14
  8029c8:	10c1002c 	andhi	r3,r2,1024
  8029cc:	18003a26 	beq	r3,zero,802ab8 <__addsf3+0x2a8>
  8029d0:	8c400044 	addi	r17,r17,1
  8029d4:	88c03fe0 	cmpeqi	r3,r17,255
  8029d8:	18003b1e 	bne	r3,zero,802ac8 <__addsf3+0x2b8>
  8029dc:	1008d07a 	srli	r4,r2,1
  8029e0:	00df8034 	movhi	r3,32256
  8029e4:	18ffffc4 	addi	r3,r3,-1
  8029e8:	1080004c 	andi	r2,r2,1
  8029ec:	20c8703a 	and	r4,r4,r3
  8029f0:	2084b03a 	or	r2,r4,r2
  8029f4:	003fbc06 	br	8028e8 <__addsf3+0xd8>
  8029f8:	58001a26 	beq	r11,zero,802a64 <__addsf3+0x254>
  8029fc:	10bfffc4 	addi	r2,r2,-1
  802a00:	10007c26 	beq	r2,zero,802bf4 <__addsf3+0x3e4>
  802a04:	88c03fe0 	cmpeqi	r3,r17,255
  802a08:	183f9b26 	beq	r3,zero,802878 <__addsf3+0x68>
  802a0c:	003fd906 	br	802974 <__addsf3+0x164>
  802a10:	88800044 	addi	r2,r17,1
  802a14:	10803f8c 	andi	r2,r2,254
  802a18:	1000461e 	bne	r2,zero,802b34 <__addsf3+0x324>
  802a1c:	88006e1e 	bne	r17,zero,802bd8 <__addsf3+0x3c8>
  802a20:	70007f26 	beq	r14,zero,802c20 <__addsf3+0x410>
  802a24:	583fbd26 	beq	r11,zero,80291c <__addsf3+0x10c>
  802a28:	72c5c83a 	sub	r2,r14,r11
  802a2c:	1101002c 	andhi	r4,r2,1024
  802a30:	20008326 	beq	r4,zero,802c40 <__addsf3+0x430>
  802a34:	5b85c83a 	sub	r2,r11,r14
  802a38:	6025883a 	mov	r18,r12
  802a3c:	003faa06 	br	8028e8 <__addsf3+0xd8>
  802a40:	58000826 	beq	r11,zero,802a64 <__addsf3+0x254>
  802a44:	10bfffc4 	addi	r2,r2,-1
  802a48:	10006826 	beq	r2,zero,802bec <__addsf3+0x3dc>
  802a4c:	88c03fe0 	cmpeqi	r3,r17,255
  802a50:	183fd426 	beq	r3,zero,8029a4 <__addsf3+0x194>
  802a54:	003fc706 	br	802974 <__addsf3+0x164>
  802a58:	6025883a 	mov	r18,r12
  802a5c:	6815883a 	mov	r10,r13
  802a60:	4823883a 	mov	r17,r9
  802a64:	88803fe0 	cmpeqi	r2,r17,255
  802a68:	103fc21e 	bne	r2,zero,802974 <__addsf3+0x164>
  802a6c:	00802034 	movhi	r2,128
  802a70:	10bfffc4 	addi	r2,r2,-1
  802a74:	508c703a 	and	r6,r10,r2
  802a78:	8807883a 	mov	r3,r17
  802a7c:	003fa706 	br	80291c <__addsf3+0x10c>
  802a80:	881f883a 	mov	r15,r17
  802a84:	8c400044 	addi	r17,r17,1
  802a88:	88803f8c 	andi	r2,r17,254
  802a8c:	10004a1e 	bne	r2,zero,802bb8 <__addsf3+0x3a8>
  802a90:	78005a1e 	bne	r15,zero,802bfc <__addsf3+0x3ec>
  802a94:	70006e26 	beq	r14,zero,802c50 <__addsf3+0x440>
  802a98:	583fa026 	beq	r11,zero,80291c <__addsf3+0x10c>
  802a9c:	72c5883a 	add	r2,r14,r11
  802aa0:	10c1002c 	andhi	r3,r2,1024
  802aa4:	18006f26 	beq	r3,zero,802c64 <__addsf3+0x454>
  802aa8:	00ff0034 	movhi	r3,64512
  802aac:	18ffffc4 	addi	r3,r3,-1
  802ab0:	10c4703a 	and	r2,r2,r3
  802ab4:	04400044 	movi	r17,1
  802ab8:	10c001cc 	andi	r3,r2,7
  802abc:	183f8c1e 	bne	r3,zero,8028f0 <__addsf3+0xe0>
  802ac0:	1014d0fa 	srli	r10,r2,3
  802ac4:	003fe706 	br	802a64 <__addsf3+0x254>
  802ac8:	00ffffc4 	movi	r3,-1
  802acc:	000d883a 	mov	r6,zero
  802ad0:	003f9206 	br	80291c <__addsf3+0x10c>
  802ad4:	103fea26 	beq	r2,zero,802a80 <__addsf3+0x270>
  802ad8:	4c49c83a 	sub	r4,r9,r17
  802adc:	88003026 	beq	r17,zero,802ba0 <__addsf3+0x390>
  802ae0:	48803fe0 	cmpeqi	r2,r9,255
  802ae4:	103fa21e 	bne	r2,zero,802970 <__addsf3+0x160>
  802ae8:	73810034 	orhi	r14,r14,1024
  802aec:	20800708 	cmpgei	r2,r4,28
  802af0:	1000491e 	bne	r2,zero,802c18 <__addsf3+0x408>
  802af4:	00800804 	movi	r2,32
  802af8:	1105c83a 	sub	r2,r2,r4
  802afc:	7084983a 	sll	r2,r14,r2
  802b00:	7108d83a 	srl	r4,r14,r4
  802b04:	1004c03a 	cmpne	r2,r2,zero
  802b08:	2088b03a 	or	r4,r4,r2
  802b0c:	22c5883a 	add	r2,r4,r11
  802b10:	4823883a 	mov	r17,r9
  802b14:	003fac06 	br	8029c8 <__addsf3+0x1b8>
  802b18:	013f0034 	movhi	r4,64512
  802b1c:	213fffc4 	addi	r4,r4,-1
  802b20:	88e3c83a 	sub	r17,r17,r3
  802b24:	1104703a 	and	r2,r2,r4
  802b28:	003f6f06 	br	8028e8 <__addsf3+0xd8>
  802b2c:	00800044 	movi	r2,1
  802b30:	003f5906 	br	802898 <__addsf3+0x88>
  802b34:	72e1c83a 	sub	r16,r14,r11
  802b38:	8081002c 	andhi	r2,r16,1024
  802b3c:	1000231e 	bne	r2,zero,802bcc <__addsf3+0x3bc>
  802b40:	803f5b1e 	bne	r16,zero,8028b0 <__addsf3+0xa0>
  802b44:	0025883a 	mov	r18,zero
  802b48:	0007883a 	mov	r3,zero
  802b4c:	000d883a 	mov	r6,zero
  802b50:	003f7206 	br	80291c <__addsf3+0x10c>
  802b54:	48803fe0 	cmpeqi	r2,r9,255
  802b58:	103f841e 	bne	r2,zero,80296c <__addsf3+0x15c>
  802b5c:	73810034 	orhi	r14,r14,1024
  802b60:	20800708 	cmpgei	r2,r4,28
  802b64:	10000726 	beq	r2,zero,802b84 <__addsf3+0x374>
  802b68:	01000044 	movi	r4,1
  802b6c:	5905c83a 	sub	r2,r11,r4
  802b70:	6025883a 	mov	r18,r12
  802b74:	4823883a 	mov	r17,r9
  802b78:	003f4806 	br	80289c <__addsf3+0x8c>
  802b7c:	00800044 	movi	r2,1
  802b80:	003f9006 	br	8029c4 <__addsf3+0x1b4>
  802b84:	00800804 	movi	r2,32
  802b88:	1105c83a 	sub	r2,r2,r4
  802b8c:	7084983a 	sll	r2,r14,r2
  802b90:	7108d83a 	srl	r4,r14,r4
  802b94:	1004c03a 	cmpne	r2,r2,zero
  802b98:	2088b03a 	or	r4,r4,r2
  802b9c:	003ff306 	br	802b6c <__addsf3+0x35c>
  802ba0:	703fae26 	beq	r14,zero,802a5c <__addsf3+0x24c>
  802ba4:	213fffc4 	addi	r4,r4,-1
  802ba8:	20002b26 	beq	r4,zero,802c58 <__addsf3+0x448>
  802bac:	48803fe0 	cmpeqi	r2,r9,255
  802bb0:	103fce26 	beq	r2,zero,802aec <__addsf3+0x2dc>
  802bb4:	003f6e06 	br	802970 <__addsf3+0x160>
  802bb8:	88803fe0 	cmpeqi	r2,r17,255
  802bbc:	103fc21e 	bne	r2,zero,802ac8 <__addsf3+0x2b8>
  802bc0:	72c5883a 	add	r2,r14,r11
  802bc4:	1004d07a 	srli	r2,r2,1
  802bc8:	003fbb06 	br	802ab8 <__addsf3+0x2a8>
  802bcc:	5ba1c83a 	sub	r16,r11,r14
  802bd0:	6025883a 	mov	r18,r12
  802bd4:	003f3606 	br	8028b0 <__addsf3+0xa0>
  802bd8:	7000091e 	bne	r14,zero,802c00 <__addsf3+0x3f0>
  802bdc:	583f631e 	bne	r11,zero,80296c <__addsf3+0x15c>
  802be0:	0025883a 	mov	r18,zero
  802be4:	380d883a 	mov	r6,r7
  802be8:	003f6706 	br	802988 <__addsf3+0x178>
  802bec:	72c5883a 	add	r2,r14,r11
  802bf0:	003f7506 	br	8029c8 <__addsf3+0x1b8>
  802bf4:	72c5c83a 	sub	r2,r14,r11
  802bf8:	003f2806 	br	80289c <__addsf3+0x8c>
  802bfc:	703f5c26 	beq	r14,zero,802970 <__addsf3+0x160>
  802c00:	583f5c26 	beq	r11,zero,802974 <__addsf3+0x164>
  802c04:	20c0102c 	andhi	r3,r4,64
  802c08:	183f5a26 	beq	r3,zero,802974 <__addsf3+0x164>
  802c0c:	2940102c 	andhi	r5,r5,64
  802c10:	283f581e 	bne	r5,zero,802974 <__addsf3+0x164>
  802c14:	003f5506 	br	80296c <__addsf3+0x15c>
  802c18:	01000044 	movi	r4,1
  802c1c:	003fbb06 	br	802b0c <__addsf3+0x2fc>
  802c20:	58000826 	beq	r11,zero,802c44 <__addsf3+0x434>
  802c24:	6025883a 	mov	r18,r12
  802c28:	680d883a 	mov	r6,r13
  802c2c:	003f3b06 	br	80291c <__addsf3+0x10c>
  802c30:	5b85c83a 	sub	r2,r11,r14
  802c34:	6025883a 	mov	r18,r12
  802c38:	4823883a 	mov	r17,r9
  802c3c:	003f1706 	br	80289c <__addsf3+0x8c>
  802c40:	103f9d1e 	bne	r2,zero,802ab8 <__addsf3+0x2a8>
  802c44:	0025883a 	mov	r18,zero
  802c48:	000d883a 	mov	r6,zero
  802c4c:	003f3306 	br	80291c <__addsf3+0x10c>
  802c50:	680d883a 	mov	r6,r13
  802c54:	003f3106 	br	80291c <__addsf3+0x10c>
  802c58:	72c5883a 	add	r2,r14,r11
  802c5c:	4823883a 	mov	r17,r9
  802c60:	003f5906 	br	8029c8 <__addsf3+0x1b8>
  802c64:	0023883a 	mov	r17,zero
  802c68:	003f9306 	br	802ab8 <__addsf3+0x2a8>

00802c6c <__mulsf3>:
  802c6c:	defff504 	addi	sp,sp,-44
  802c70:	dc400215 	stw	r17,8(sp)
  802c74:	2022d5fa 	srli	r17,r4,23
  802c78:	dc000115 	stw	r16,4(sp)
  802c7c:	04002034 	movhi	r16,128
  802c80:	dd800715 	stw	r22,28(sp)
  802c84:	843fffc4 	addi	r16,r16,-1
  802c88:	dfc00a15 	stw	ra,40(sp)
  802c8c:	df000915 	stw	fp,36(sp)
  802c90:	ddc00815 	stw	r23,32(sp)
  802c94:	dd400615 	stw	r21,24(sp)
  802c98:	dd000515 	stw	r20,20(sp)
  802c9c:	dcc00415 	stw	r19,16(sp)
  802ca0:	dc800315 	stw	r18,12(sp)
  802ca4:	8c403fcc 	andi	r17,r17,255
  802ca8:	202cd7fa 	srli	r22,r4,31
  802cac:	8120703a 	and	r16,r16,r4
  802cb0:	88005026 	beq	r17,zero,802df4 <__mulsf3+0x188>
  802cb4:	88803fe0 	cmpeqi	r2,r17,255
  802cb8:	1000531e 	bne	r2,zero,802e08 <__mulsf3+0x19c>
  802cbc:	802090fa 	slli	r16,r16,3
  802cc0:	8c7fe044 	addi	r17,r17,-127
  802cc4:	0025883a 	mov	r18,zero
  802cc8:	84010034 	orhi	r16,r16,1024
  802ccc:	0029883a 	mov	r20,zero
  802cd0:	2804d5fa 	srli	r2,r5,23
  802cd4:	01002034 	movhi	r4,128
  802cd8:	213fffc4 	addi	r4,r4,-1
  802cdc:	10803fcc 	andi	r2,r2,255
  802ce0:	282ed7fa 	srli	r23,r5,31
  802ce4:	2166703a 	and	r19,r4,r5
  802ce8:	10004c26 	beq	r2,zero,802e1c <__mulsf3+0x1b0>
  802cec:	10c03fe0 	cmpeqi	r3,r2,255
  802cf0:	18001e1e 	bne	r3,zero,802d6c <__mulsf3+0x100>
  802cf4:	980890fa 	slli	r4,r19,3
  802cf8:	10bfe044 	addi	r2,r2,-127
  802cfc:	88a3883a 	add	r17,r17,r2
  802d00:	24c10034 	orhi	r19,r4,1024
  802d04:	0007883a 	mov	r3,zero
  802d08:	90800428 	cmpgeui	r2,r18,16
  802d0c:	b5eaf03a 	xor	r21,r22,r23
  802d10:	8f000044 	addi	fp,r17,1
  802d14:	1000481e 	bne	r2,zero,802e38 <__mulsf3+0x1cc>
  802d18:	902490ba 	slli	r18,r18,2
  802d1c:	00802034 	movhi	r2,128
  802d20:	9085883a 	add	r2,r18,r2
  802d24:	108b4b17 	ldw	r2,11564(r2)
  802d28:	1000683a 	jmp	r2
  802d2c:	00802e38 	rdprs	r2,zero,184
  802d30:	00802d84 	movi	r2,182
  802d34:	00802d84 	movi	r2,182
  802d38:	00802d80 	call	802d8 <__alt_mem_sdram-0x77fd28>
  802d3c:	00802d8c 	andi	r2,zero,182
  802d40:	00802d8c 	andi	r2,zero,182
  802d44:	00802f98 	cmpnei	r2,zero,190
  802d48:	00802d80 	call	802d8 <__alt_mem_sdram-0x77fd28>
  802d4c:	00802d8c 	andi	r2,zero,182
  802d50:	00802f98 	cmpnei	r2,zero,190
  802d54:	00802d8c 	andi	r2,zero,182
  802d58:	00802d80 	call	802d8 <__alt_mem_sdram-0x77fd28>
  802d5c:	00802f28 	cmpgeui	r2,zero,188
  802d60:	00802f28 	cmpgeui	r2,zero,188
  802d64:	00802f28 	cmpgeui	r2,zero,188
  802d68:	00802ffc 	xorhi	r2,zero,191
  802d6c:	8c403fc4 	addi	r17,r17,255
  802d70:	98006f1e 	bne	r19,zero,802f30 <__mulsf3+0x2c4>
  802d74:	94800094 	ori	r18,r18,2
  802d78:	00c00084 	movi	r3,2
  802d7c:	003fe206 	br	802d08 <__mulsf3+0x9c>
  802d80:	b82b883a 	mov	r21,r23
  802d84:	9821883a 	mov	r16,r19
  802d88:	1829883a 	mov	r20,r3
  802d8c:	a08000a0 	cmpeqi	r2,r20,2
  802d90:	1000261e 	bne	r2,zero,802e2c <__mulsf3+0x1c0>
  802d94:	a08000e0 	cmpeqi	r2,r20,3
  802d98:	1000ae1e 	bne	r2,zero,803054 <__mulsf3+0x3e8>
  802d9c:	a0800060 	cmpeqi	r2,r20,1
  802da0:	10004e26 	beq	r2,zero,802edc <__mulsf3+0x270>
  802da4:	0007883a 	mov	r3,zero
  802da8:	0009883a 	mov	r4,zero
  802dac:	1c003fcc 	andi	r16,r3,255
  802db0:	a8803fcc 	andi	r2,r21,255
  802db4:	802095fa 	slli	r16,r16,23
  802db8:	100497fa 	slli	r2,r2,31
  802dbc:	8120b03a 	or	r16,r16,r4
  802dc0:	8084b03a 	or	r2,r16,r2
  802dc4:	dfc00a17 	ldw	ra,40(sp)
  802dc8:	df000917 	ldw	fp,36(sp)
  802dcc:	ddc00817 	ldw	r23,32(sp)
  802dd0:	dd800717 	ldw	r22,28(sp)
  802dd4:	dd400617 	ldw	r21,24(sp)
  802dd8:	dd000517 	ldw	r20,20(sp)
  802ddc:	dcc00417 	ldw	r19,16(sp)
  802de0:	dc800317 	ldw	r18,12(sp)
  802de4:	dc400217 	ldw	r17,8(sp)
  802de8:	dc000117 	ldw	r16,4(sp)
  802dec:	dec00b04 	addi	sp,sp,44
  802df0:	f800283a 	ret
  802df4:	80005d1e 	bne	r16,zero,802f6c <__mulsf3+0x300>
  802df8:	04800104 	movi	r18,4
  802dfc:	0023883a 	mov	r17,zero
  802e00:	05000044 	movi	r20,1
  802e04:	003fb206 	br	802cd0 <__mulsf3+0x64>
  802e08:	8000541e 	bne	r16,zero,802f5c <__mulsf3+0x2f0>
  802e0c:	04800204 	movi	r18,8
  802e10:	04403fc4 	movi	r17,255
  802e14:	05000084 	movi	r20,2
  802e18:	003fad06 	br	802cd0 <__mulsf3+0x64>
  802e1c:	9800471e 	bne	r19,zero,802f3c <__mulsf3+0x2d0>
  802e20:	94800054 	ori	r18,r18,1
  802e24:	00c00044 	movi	r3,1
  802e28:	003fb706 	br	802d08 <__mulsf3+0x9c>
  802e2c:	00ffffc4 	movi	r3,-1
  802e30:	0009883a 	mov	r4,zero
  802e34:	003fdd06 	br	802dac <__mulsf3+0x140>
  802e38:	8028d43a 	srli	r20,r16,16
  802e3c:	9cbfffcc 	andi	r18,r19,65535
  802e40:	843fffcc 	andi	r16,r16,65535
  802e44:	900b883a 	mov	r5,r18
  802e48:	8009883a 	mov	r4,r16
  802e4c:	080595c0 	call	80595c <__mulsi3>
  802e50:	9826d43a 	srli	r19,r19,16
  802e54:	900b883a 	mov	r5,r18
  802e58:	a009883a 	mov	r4,r20
  802e5c:	1025883a 	mov	r18,r2
  802e60:	080595c0 	call	80595c <__mulsi3>
  802e64:	980b883a 	mov	r5,r19
  802e68:	a009883a 	mov	r4,r20
  802e6c:	1029883a 	mov	r20,r2
  802e70:	080595c0 	call	80595c <__mulsi3>
  802e74:	9809883a 	mov	r4,r19
  802e78:	800b883a 	mov	r5,r16
  802e7c:	1027883a 	mov	r19,r2
  802e80:	080595c0 	call	80595c <__mulsi3>
  802e84:	9006d43a 	srli	r3,r18,16
  802e88:	1505883a 	add	r2,r2,r20
  802e8c:	1887883a 	add	r3,r3,r2
  802e90:	1d00022e 	bgeu	r3,r20,802e9c <__mulsf3+0x230>
  802e94:	00800074 	movhi	r2,1
  802e98:	98a7883a 	add	r19,r19,r2
  802e9c:	1808943a 	slli	r4,r3,16
  802ea0:	1820d43a 	srli	r16,r3,16
  802ea4:	94bfffcc 	andi	r18,r18,65535
  802ea8:	2489883a 	add	r4,r4,r18
  802eac:	200a91ba 	slli	r5,r4,6
  802eb0:	84e1883a 	add	r16,r16,r19
  802eb4:	802091ba 	slli	r16,r16,6
  802eb8:	2008d6ba 	srli	r4,r4,26
  802ebc:	2804c03a 	cmpne	r2,r5,zero
  802ec0:	80c2002c 	andhi	r3,r16,2048
  802ec4:	1108b03a 	or	r4,r2,r4
  802ec8:	8120b03a 	or	r16,r16,r4
  802ecc:	18005b26 	beq	r3,zero,80303c <__mulsf3+0x3d0>
  802ed0:	8004d07a 	srli	r2,r16,1
  802ed4:	8400004c 	andi	r16,r16,1
  802ed8:	1420b03a 	or	r16,r2,r16
  802edc:	e0c01fc4 	addi	r3,fp,127
  802ee0:	00c0320e 	bge	zero,r3,802fac <__mulsf3+0x340>
  802ee4:	808001cc 	andi	r2,r16,7
  802ee8:	10000426 	beq	r2,zero,802efc <__mulsf3+0x290>
  802eec:	808003cc 	andi	r2,r16,15
  802ef0:	10800120 	cmpeqi	r2,r2,4
  802ef4:	1000011e 	bne	r2,zero,802efc <__mulsf3+0x290>
  802ef8:	84000104 	addi	r16,r16,4
  802efc:	8082002c 	andhi	r2,r16,2048
  802f00:	10000426 	beq	r2,zero,802f14 <__mulsf3+0x2a8>
  802f04:	00be0034 	movhi	r2,63488
  802f08:	10bfffc4 	addi	r2,r2,-1
  802f0c:	80a0703a 	and	r16,r16,r2
  802f10:	e0c02004 	addi	r3,fp,128
  802f14:	18803fc8 	cmpgei	r2,r3,255
  802f18:	103fc41e 	bne	r2,zero,802e2c <__mulsf3+0x1c0>
  802f1c:	802091ba 	slli	r16,r16,6
  802f20:	8008d27a 	srli	r4,r16,9
  802f24:	003fa106 	br	802dac <__mulsf3+0x140>
  802f28:	b02b883a 	mov	r21,r22
  802f2c:	003f9706 	br	802d8c <__mulsf3+0x120>
  802f30:	948000d4 	ori	r18,r18,3
  802f34:	00c000c4 	movi	r3,3
  802f38:	003f7306 	br	802d08 <__mulsf3+0x9c>
  802f3c:	9809883a 	mov	r4,r19
  802f40:	08059080 	call	805908 <__clzsi2>
  802f44:	10fffec4 	addi	r3,r2,-5
  802f48:	88a3c83a 	sub	r17,r17,r2
  802f4c:	98e6983a 	sll	r19,r19,r3
  802f50:	8c7fe284 	addi	r17,r17,-118
  802f54:	0007883a 	mov	r3,zero
  802f58:	003f6b06 	br	802d08 <__mulsf3+0x9c>
  802f5c:	04800304 	movi	r18,12
  802f60:	04403fc4 	movi	r17,255
  802f64:	050000c4 	movi	r20,3
  802f68:	003f5906 	br	802cd0 <__mulsf3+0x64>
  802f6c:	8009883a 	mov	r4,r16
  802f70:	d9400015 	stw	r5,0(sp)
  802f74:	08059080 	call	805908 <__clzsi2>
  802f78:	10fffec4 	addi	r3,r2,-5
  802f7c:	047fe284 	movi	r17,-118
  802f80:	80e0983a 	sll	r16,r16,r3
  802f84:	d9400017 	ldw	r5,0(sp)
  802f88:	88a3c83a 	sub	r17,r17,r2
  802f8c:	0025883a 	mov	r18,zero
  802f90:	0029883a 	mov	r20,zero
  802f94:	003f4e06 	br	802cd0 <__mulsf3+0x64>
  802f98:	01002034 	movhi	r4,128
  802f9c:	002b883a 	mov	r21,zero
  802fa0:	213fffc4 	addi	r4,r4,-1
  802fa4:	00ffffc4 	movi	r3,-1
  802fa8:	003f8006 	br	802dac <__mulsf3+0x140>
  802fac:	00800044 	movi	r2,1
  802fb0:	10c7c83a 	sub	r3,r2,r3
  802fb4:	18800708 	cmpgei	r2,r3,28
  802fb8:	103f7a1e 	bne	r2,zero,802da4 <__mulsf3+0x138>
  802fbc:	e1002784 	addi	r4,fp,158
  802fc0:	8108983a 	sll	r4,r16,r4
  802fc4:	80e0d83a 	srl	r16,r16,r3
  802fc8:	2008c03a 	cmpne	r4,r4,zero
  802fcc:	8120b03a 	or	r16,r16,r4
  802fd0:	808001cc 	andi	r2,r16,7
  802fd4:	10000426 	beq	r2,zero,802fe8 <__mulsf3+0x37c>
  802fd8:	808003cc 	andi	r2,r16,15
  802fdc:	10800120 	cmpeqi	r2,r2,4
  802fe0:	1000011e 	bne	r2,zero,802fe8 <__mulsf3+0x37c>
  802fe4:	84000104 	addi	r16,r16,4
  802fe8:	8081002c 	andhi	r2,r16,1024
  802fec:	10001526 	beq	r2,zero,803044 <__mulsf3+0x3d8>
  802ff0:	00c00044 	movi	r3,1
  802ff4:	0009883a 	mov	r4,zero
  802ff8:	003f6c06 	br	802dac <__mulsf3+0x140>
  802ffc:	8080102c 	andhi	r2,r16,64
  803000:	10000826 	beq	r2,zero,803024 <__mulsf3+0x3b8>
  803004:	9880102c 	andhi	r2,r19,64
  803008:	1000061e 	bne	r2,zero,803024 <__mulsf3+0x3b8>
  80300c:	00802034 	movhi	r2,128
  803010:	99001034 	orhi	r4,r19,64
  803014:	10bfffc4 	addi	r2,r2,-1
  803018:	2088703a 	and	r4,r4,r2
  80301c:	b82b883a 	mov	r21,r23
  803020:	003fe006 	br	802fa4 <__mulsf3+0x338>
  803024:	00802034 	movhi	r2,128
  803028:	81001034 	orhi	r4,r16,64
  80302c:	10bfffc4 	addi	r2,r2,-1
  803030:	2088703a 	and	r4,r4,r2
  803034:	b02b883a 	mov	r21,r22
  803038:	003fda06 	br	802fa4 <__mulsf3+0x338>
  80303c:	8839883a 	mov	fp,r17
  803040:	003fa606 	br	802edc <__mulsf3+0x270>
  803044:	802091ba 	slli	r16,r16,6
  803048:	0007883a 	mov	r3,zero
  80304c:	8008d27a 	srli	r4,r16,9
  803050:	003f5606 	br	802dac <__mulsf3+0x140>
  803054:	00802034 	movhi	r2,128
  803058:	81001034 	orhi	r4,r16,64
  80305c:	10bfffc4 	addi	r2,r2,-1
  803060:	2088703a 	and	r4,r4,r2
  803064:	003fcf06 	br	802fa4 <__mulsf3+0x338>

00803068 <__adddf3>:
  803068:	02000434 	movhi	r8,16
  80306c:	423fffc4 	addi	r8,r8,-1
  803070:	3a12703a 	and	r9,r7,r8
  803074:	2a06703a 	and	r3,r5,r8
  803078:	2818d53a 	srli	r12,r5,20
  80307c:	3804d53a 	srli	r2,r7,20
  803080:	481490fa 	slli	r10,r9,3
  803084:	280ad7fa 	srli	r5,r5,31
  803088:	180690fa 	slli	r3,r3,3
  80308c:	2016d77a 	srli	r11,r4,29
  803090:	3012d77a 	srli	r9,r6,29
  803094:	380ed7fa 	srli	r7,r7,31
  803098:	defffb04 	addi	sp,sp,-20
  80309c:	dc400115 	stw	r17,4(sp)
  8030a0:	dc000015 	stw	r16,0(sp)
  8030a4:	dfc00415 	stw	ra,16(sp)
  8030a8:	dcc00315 	stw	r19,12(sp)
  8030ac:	dc800215 	stw	r18,8(sp)
  8030b0:	201c90fa 	slli	r14,r4,3
  8030b4:	301a90fa 	slli	r13,r6,3
  8030b8:	6441ffcc 	andi	r17,r12,2047
  8030bc:	2821883a 	mov	r16,r5
  8030c0:	58c6b03a 	or	r3,r11,r3
  8030c4:	1081ffcc 	andi	r2,r2,2047
  8030c8:	4a92b03a 	or	r9,r9,r10
  8030cc:	29c06326 	beq	r5,r7,80325c <__adddf3+0x1f4>
  8030d0:	888bc83a 	sub	r5,r17,r2
  8030d4:	0140560e 	bge	zero,r5,803230 <__adddf3+0x1c8>
  8030d8:	10007526 	beq	r2,zero,8032b0 <__adddf3+0x248>
  8030dc:	8881ffd8 	cmpnei	r2,r17,2047
  8030e0:	10012d26 	beq	r2,zero,803598 <__adddf3+0x530>
  8030e4:	4a402034 	orhi	r9,r9,128
  8030e8:	28800e48 	cmpgei	r2,r5,57
  8030ec:	1000f41e 	bne	r2,zero,8034c0 <__adddf3+0x458>
  8030f0:	28800808 	cmpgei	r2,r5,32
  8030f4:	1001471e 	bne	r2,zero,803614 <__adddf3+0x5ac>
  8030f8:	00800804 	movi	r2,32
  8030fc:	1145c83a 	sub	r2,r2,r5
  803100:	6948d83a 	srl	r4,r13,r5
  803104:	48a4983a 	sll	r18,r9,r2
  803108:	6884983a 	sll	r2,r13,r2
  80310c:	494ad83a 	srl	r5,r9,r5
  803110:	9124b03a 	or	r18,r18,r4
  803114:	101ac03a 	cmpne	r13,r2,zero
  803118:	9364b03a 	or	r18,r18,r13
  80311c:	1947c83a 	sub	r3,r3,r5
  803120:	74a5c83a 	sub	r18,r14,r18
  803124:	7489803a 	cmpltu	r4,r14,r18
  803128:	1909c83a 	sub	r4,r3,r4
  80312c:	2080202c 	andhi	r2,r4,128
  803130:	10008626 	beq	r2,zero,80334c <__adddf3+0x2e4>
  803134:	00802034 	movhi	r2,128
  803138:	10bfffc4 	addi	r2,r2,-1
  80313c:	20a6703a 	and	r19,r4,r2
  803140:	9800d626 	beq	r19,zero,80349c <__adddf3+0x434>
  803144:	9809883a 	mov	r4,r19
  803148:	08059080 	call	805908 <__clzsi2>
  80314c:	133ffe04 	addi	r12,r2,-8
  803150:	01000804 	movi	r4,32
  803154:	2309c83a 	sub	r4,r4,r12
  803158:	9108d83a 	srl	r4,r18,r4
  80315c:	9b04983a 	sll	r2,r19,r12
  803160:	9324983a 	sll	r18,r18,r12
  803164:	2088b03a 	or	r4,r4,r2
  803168:	6440c716 	blt	r12,r17,803488 <__adddf3+0x420>
  80316c:	6459c83a 	sub	r12,r12,r17
  803170:	62000044 	addi	r8,r12,1
  803174:	40800808 	cmpgei	r2,r8,32
  803178:	1001191e 	bne	r2,zero,8035e0 <__adddf3+0x578>
  80317c:	00800804 	movi	r2,32
  803180:	1205c83a 	sub	r2,r2,r8
  803184:	9206d83a 	srl	r3,r18,r8
  803188:	90a4983a 	sll	r18,r18,r2
  80318c:	2084983a 	sll	r2,r4,r2
  803190:	2208d83a 	srl	r4,r4,r8
  803194:	9024c03a 	cmpne	r18,r18,zero
  803198:	10c4b03a 	or	r2,r2,r3
  80319c:	14a4b03a 	or	r18,r2,r18
  8031a0:	0023883a 	mov	r17,zero
  8031a4:	908001cc 	andi	r2,r18,7
  8031a8:	10000726 	beq	r2,zero,8031c8 <__adddf3+0x160>
  8031ac:	908003cc 	andi	r2,r18,15
  8031b0:	10800120 	cmpeqi	r2,r2,4
  8031b4:	1000041e 	bne	r2,zero,8031c8 <__adddf3+0x160>
  8031b8:	90c00104 	addi	r3,r18,4
  8031bc:	1ca5803a 	cmpltu	r18,r3,r18
  8031c0:	2489883a 	add	r4,r4,r18
  8031c4:	1825883a 	mov	r18,r3
  8031c8:	2080202c 	andhi	r2,r4,128
  8031cc:	10006126 	beq	r2,zero,803354 <__adddf3+0x2ec>
  8031d0:	89400044 	addi	r5,r17,1
  8031d4:	2881ffe0 	cmpeqi	r2,r5,2047
  8031d8:	2941ffcc 	andi	r5,r5,2047
  8031dc:	1000731e 	bne	r2,zero,8033ac <__adddf3+0x344>
  8031e0:	023fe034 	movhi	r8,65408
  8031e4:	423fffc4 	addi	r8,r8,-1
  8031e8:	2210703a 	and	r8,r4,r8
  8031ec:	4006927a 	slli	r3,r8,9
  8031f0:	9024d0fa 	srli	r18,r18,3
  8031f4:	4004977a 	slli	r2,r8,29
  8031f8:	1806d33a 	srli	r3,r3,12
  8031fc:	1484b03a 	or	r2,r2,r18
  803200:	280a953a 	slli	r5,r5,20
  803204:	84003fcc 	andi	r16,r16,255
  803208:	802097fa 	slli	r16,r16,31
  80320c:	28c6b03a 	or	r3,r5,r3
  803210:	1c06b03a 	or	r3,r3,r16
  803214:	dfc00417 	ldw	ra,16(sp)
  803218:	dcc00317 	ldw	r19,12(sp)
  80321c:	dc800217 	ldw	r18,8(sp)
  803220:	dc400117 	ldw	r17,4(sp)
  803224:	dc000017 	ldw	r16,0(sp)
  803228:	dec00504 	addi	sp,sp,20
  80322c:	f800283a 	ret
  803230:	28002726 	beq	r5,zero,8032d0 <__adddf3+0x268>
  803234:	144bc83a 	sub	r5,r2,r17
  803238:	8800be1e 	bne	r17,zero,803534 <__adddf3+0x4cc>
  80323c:	1b88b03a 	or	r4,r3,r14
  803240:	20013126 	beq	r4,zero,803708 <__adddf3+0x6a0>
  803244:	293fffc4 	addi	r4,r5,-1
  803248:	20017226 	beq	r4,zero,803814 <__adddf3+0x7ac>
  80324c:	2941ffd8 	cmpnei	r5,r5,2047
  803250:	2801c226 	beq	r5,zero,80395c <__adddf3+0x8f4>
  803254:	200b883a 	mov	r5,r4
  803258:	0000b906 	br	803540 <__adddf3+0x4d8>
  80325c:	888bc83a 	sub	r5,r17,r2
  803260:	0140700e 	bge	zero,r5,803424 <__adddf3+0x3bc>
  803264:	10002a26 	beq	r2,zero,803310 <__adddf3+0x2a8>
  803268:	8881ffd8 	cmpnei	r2,r17,2047
  80326c:	1000ca26 	beq	r2,zero,803598 <__adddf3+0x530>
  803270:	4a402034 	orhi	r9,r9,128
  803274:	28800e48 	cmpgei	r2,r5,57
  803278:	1000421e 	bne	r2,zero,803384 <__adddf3+0x31c>
  80327c:	28800808 	cmpgei	r2,r5,32
  803280:	1000ff26 	beq	r2,zero,803680 <__adddf3+0x618>
  803284:	2cbff804 	addi	r18,r5,-32
  803288:	29000820 	cmpeqi	r4,r5,32
  80328c:	4c84d83a 	srl	r2,r9,r18
  803290:	2000041e 	bne	r4,zero,8032a4 <__adddf3+0x23c>
  803294:	01001004 	movi	r4,64
  803298:	214bc83a 	sub	r5,r4,r5
  80329c:	4952983a 	sll	r9,r9,r5
  8032a0:	6a5ab03a 	or	r13,r13,r9
  8032a4:	6824c03a 	cmpne	r18,r13,zero
  8032a8:	90a4b03a 	or	r18,r18,r2
  8032ac:	00003706 	br	80338c <__adddf3+0x324>
  8032b0:	4b44b03a 	or	r2,r9,r13
  8032b4:	1000b126 	beq	r2,zero,80357c <__adddf3+0x514>
  8032b8:	28bfffc4 	addi	r2,r5,-1
  8032bc:	10011a26 	beq	r2,zero,803728 <__adddf3+0x6c0>
  8032c0:	2941ffd8 	cmpnei	r5,r5,2047
  8032c4:	28012526 	beq	r5,zero,80375c <__adddf3+0x6f4>
  8032c8:	100b883a 	mov	r5,r2
  8032cc:	003f8606 	br	8030e8 <__adddf3+0x80>
  8032d0:	8a800044 	addi	r10,r17,1
  8032d4:	5281ff8c 	andi	r10,r10,2046
  8032d8:	50008b1e 	bne	r10,zero,803508 <__adddf3+0x4a0>
  8032dc:	1b96b03a 	or	r11,r3,r14
  8032e0:	4b44b03a 	or	r2,r9,r13
  8032e4:	8801031e 	bne	r17,zero,8036f4 <__adddf3+0x68c>
  8032e8:	58014126 	beq	r11,zero,8037f0 <__adddf3+0x788>
  8032ec:	1001571e 	bne	r2,zero,80384c <__adddf3+0x7e4>
  8032f0:	1804977a 	slli	r2,r3,29
  8032f4:	01480034 	movhi	r5,8192
  8032f8:	297fffc4 	addi	r5,r5,-1
  8032fc:	2148703a 	and	r4,r4,r5
  803300:	1810d0fa 	srli	r8,r3,3
  803304:	1104b03a 	or	r2,r2,r4
  803308:	500b883a 	mov	r5,r10
  80330c:	00001806 	br	803370 <__adddf3+0x308>
  803310:	4b44b03a 	or	r2,r9,r13
  803314:	10010a26 	beq	r2,zero,803740 <__adddf3+0x6d8>
  803318:	28bfffc4 	addi	r2,r5,-1
  80331c:	10000426 	beq	r2,zero,803330 <__adddf3+0x2c8>
  803320:	2941ffd8 	cmpnei	r5,r5,2047
  803324:	28014226 	beq	r5,zero,803830 <__adddf3+0x7c8>
  803328:	100b883a 	mov	r5,r2
  80332c:	003fd106 	br	803274 <__adddf3+0x20c>
  803330:	7365883a 	add	r18,r14,r13
  803334:	1a47883a 	add	r3,r3,r9
  803338:	9389803a 	cmpltu	r4,r18,r14
  80333c:	1909883a 	add	r4,r3,r4
  803340:	2080202c 	andhi	r2,r4,128
  803344:	10009b1e 	bne	r2,zero,8035b4 <__adddf3+0x54c>
  803348:	04400044 	movi	r17,1
  80334c:	908001cc 	andi	r2,r18,7
  803350:	103f961e 	bne	r2,zero,8031ac <__adddf3+0x144>
  803354:	9024d0fa 	srli	r18,r18,3
  803358:	2004977a 	slli	r2,r4,29
  80335c:	2010d0fa 	srli	r8,r4,3
  803360:	880b883a 	mov	r5,r17
  803364:	9084b03a 	or	r2,r18,r2
  803368:	28c1ffe0 	cmpeqi	r3,r5,2047
  80336c:	1800251e 	bne	r3,zero,803404 <__adddf3+0x39c>
  803370:	00c00434 	movhi	r3,16
  803374:	18ffffc4 	addi	r3,r3,-1
  803378:	40c6703a 	and	r3,r8,r3
  80337c:	2941ffcc 	andi	r5,r5,2047
  803380:	003f9f06 	br	803200 <__adddf3+0x198>
  803384:	4b64b03a 	or	r18,r9,r13
  803388:	9024c03a 	cmpne	r18,r18,zero
  80338c:	93a5883a 	add	r18,r18,r14
  803390:	9389803a 	cmpltu	r4,r18,r14
  803394:	20c9883a 	add	r4,r4,r3
  803398:	2080202c 	andhi	r2,r4,128
  80339c:	103feb26 	beq	r2,zero,80334c <__adddf3+0x2e4>
  8033a0:	8c400044 	addi	r17,r17,1
  8033a4:	8881ffe0 	cmpeqi	r2,r17,2047
  8033a8:	10008326 	beq	r2,zero,8035b8 <__adddf3+0x550>
  8033ac:	0141ffc4 	movi	r5,2047
  8033b0:	0007883a 	mov	r3,zero
  8033b4:	0005883a 	mov	r2,zero
  8033b8:	003f9106 	br	803200 <__adddf3+0x198>
  8033bc:	4b44b03a 	or	r2,r9,r13
  8033c0:	180a977a 	slli	r5,r3,29
  8033c4:	1810d0fa 	srli	r8,r3,3
  8033c8:	10016c26 	beq	r2,zero,80397c <__adddf3+0x914>
  8033cc:	00c80034 	movhi	r3,8192
  8033d0:	18ffffc4 	addi	r3,r3,-1
  8033d4:	20c4703a 	and	r2,r4,r3
  8033d8:	4100022c 	andhi	r4,r8,8
  8033dc:	1144b03a 	or	r2,r2,r5
  8033e0:	20000826 	beq	r4,zero,803404 <__adddf3+0x39c>
  8033e4:	4808d0fa 	srli	r4,r9,3
  8033e8:	2140022c 	andhi	r5,r4,8
  8033ec:	2800051e 	bne	r5,zero,803404 <__adddf3+0x39c>
  8033f0:	4804977a 	slli	r2,r9,29
  8033f4:	30cc703a 	and	r6,r6,r3
  8033f8:	3821883a 	mov	r16,r7
  8033fc:	3084b03a 	or	r2,r6,r2
  803400:	2011883a 	mov	r8,r4
  803404:	4086b03a 	or	r3,r8,r2
  803408:	18017126 	beq	r3,zero,8039d0 <__adddf3+0x968>
  80340c:	01000434 	movhi	r4,16
  803410:	40c00234 	orhi	r3,r8,8
  803414:	213fffc4 	addi	r4,r4,-1
  803418:	1906703a 	and	r3,r3,r4
  80341c:	0141ffc4 	movi	r5,2047
  803420:	003f7706 	br	803200 <__adddf3+0x198>
  803424:	28002926 	beq	r5,zero,8034cc <__adddf3+0x464>
  803428:	144bc83a 	sub	r5,r2,r17
  80342c:	88008c26 	beq	r17,zero,803660 <__adddf3+0x5f8>
  803430:	1101ffd8 	cmpnei	r4,r2,2047
  803434:	20011126 	beq	r4,zero,80387c <__adddf3+0x814>
  803438:	18c02034 	orhi	r3,r3,128
  80343c:	29000e48 	cmpgei	r4,r5,57
  803440:	2000d51e 	bne	r4,zero,803798 <__adddf3+0x730>
  803444:	29000808 	cmpgei	r4,r5,32
  803448:	2001511e 	bne	r4,zero,803990 <__adddf3+0x928>
  80344c:	01000804 	movi	r4,32
  803450:	2149c83a 	sub	r4,r4,r5
  803454:	1924983a 	sll	r18,r3,r4
  803458:	714cd83a 	srl	r6,r14,r5
  80345c:	7108983a 	sll	r4,r14,r4
  803460:	194ad83a 	srl	r5,r3,r5
  803464:	91a4b03a 	or	r18,r18,r6
  803468:	2006c03a 	cmpne	r3,r4,zero
  80346c:	90e4b03a 	or	r18,r18,r3
  803470:	4953883a 	add	r9,r9,r5
  803474:	9365883a 	add	r18,r18,r13
  803478:	9349803a 	cmpltu	r4,r18,r13
  80347c:	2249883a 	add	r4,r4,r9
  803480:	1023883a 	mov	r17,r2
  803484:	003fc406 	br	803398 <__adddf3+0x330>
  803488:	023fe034 	movhi	r8,65408
  80348c:	423fffc4 	addi	r8,r8,-1
  803490:	8b23c83a 	sub	r17,r17,r12
  803494:	2208703a 	and	r4,r4,r8
  803498:	003f4206 	br	8031a4 <__adddf3+0x13c>
  80349c:	9009883a 	mov	r4,r18
  8034a0:	08059080 	call	805908 <__clzsi2>
  8034a4:	13000604 	addi	r12,r2,24
  8034a8:	60c00808 	cmpgei	r3,r12,32
  8034ac:	183f2826 	beq	r3,zero,803150 <__adddf3+0xe8>
  8034b0:	113ffe04 	addi	r4,r2,-8
  8034b4:	9108983a 	sll	r4,r18,r4
  8034b8:	0025883a 	mov	r18,zero
  8034bc:	003f2a06 	br	803168 <__adddf3+0x100>
  8034c0:	4b64b03a 	or	r18,r9,r13
  8034c4:	9024c03a 	cmpne	r18,r18,zero
  8034c8:	003f1506 	br	803120 <__adddf3+0xb8>
  8034cc:	8a000044 	addi	r8,r17,1
  8034d0:	4081ff8c 	andi	r2,r8,2046
  8034d4:	1000751e 	bne	r2,zero,8036ac <__adddf3+0x644>
  8034d8:	1b84b03a 	or	r2,r3,r14
  8034dc:	8800bc1e 	bne	r17,zero,8037d0 <__adddf3+0x768>
  8034e0:	10010c26 	beq	r2,zero,803914 <__adddf3+0x8ac>
  8034e4:	4b44b03a 	or	r2,r9,r13
  8034e8:	1001111e 	bne	r2,zero,803930 <__adddf3+0x8c8>
  8034ec:	180c977a 	slli	r6,r3,29
  8034f0:	00880034 	movhi	r2,8192
  8034f4:	10bfffc4 	addi	r2,r2,-1
  8034f8:	2084703a 	and	r2,r4,r2
  8034fc:	1810d0fa 	srli	r8,r3,3
  803500:	1184b03a 	or	r2,r2,r6
  803504:	003f9a06 	br	803370 <__adddf3+0x308>
  803508:	7365c83a 	sub	r18,r14,r13
  80350c:	1a67c83a 	sub	r19,r3,r9
  803510:	7489803a 	cmpltu	r4,r14,r18
  803514:	9927c83a 	sub	r19,r19,r4
  803518:	9880202c 	andhi	r2,r19,128
  80351c:	10006f1e 	bne	r2,zero,8036dc <__adddf3+0x674>
  803520:	94c4b03a 	or	r2,r18,r19
  803524:	103f061e 	bne	r2,zero,803140 <__adddf3+0xd8>
  803528:	0011883a 	mov	r8,zero
  80352c:	0021883a 	mov	r16,zero
  803530:	003f8f06 	br	803370 <__adddf3+0x308>
  803534:	1101ffd8 	cmpnei	r4,r2,2047
  803538:	20008f26 	beq	r4,zero,803778 <__adddf3+0x710>
  80353c:	18c02034 	orhi	r3,r3,128
  803540:	29000e48 	cmpgei	r4,r5,57
  803544:	20003e1e 	bne	r4,zero,803640 <__adddf3+0x5d8>
  803548:	29000808 	cmpgei	r4,r5,32
  80354c:	2000951e 	bne	r4,zero,8037a4 <__adddf3+0x73c>
  803550:	01000804 	movi	r4,32
  803554:	2149c83a 	sub	r4,r4,r5
  803558:	1924983a 	sll	r18,r3,r4
  80355c:	714cd83a 	srl	r6,r14,r5
  803560:	711c983a 	sll	r14,r14,r4
  803564:	1946d83a 	srl	r3,r3,r5
  803568:	91a4b03a 	or	r18,r18,r6
  80356c:	701cc03a 	cmpne	r14,r14,zero
  803570:	93a4b03a 	or	r18,r18,r14
  803574:	48d3c83a 	sub	r9,r9,r3
  803578:	00003306 	br	803648 <__adddf3+0x5e0>
  80357c:	1824977a 	slli	r18,r3,29
  803580:	01880034 	movhi	r6,8192
  803584:	31bfffc4 	addi	r6,r6,-1
  803588:	2184703a 	and	r2,r4,r6
  80358c:	1810d0fa 	srli	r8,r3,3
  803590:	1484b03a 	or	r2,r2,r18
  803594:	003f7406 	br	803368 <__adddf3+0x300>
  803598:	1804977a 	slli	r2,r3,29
  80359c:	01480034 	movhi	r5,8192
  8035a0:	297fffc4 	addi	r5,r5,-1
  8035a4:	2148703a 	and	r4,r4,r5
  8035a8:	1810d0fa 	srli	r8,r3,3
  8035ac:	1104b03a 	or	r2,r2,r4
  8035b0:	003f9406 	br	803404 <__adddf3+0x39c>
  8035b4:	04400084 	movi	r17,2
  8035b8:	00bfe034 	movhi	r2,65408
  8035bc:	10bfffc4 	addi	r2,r2,-1
  8035c0:	9006d07a 	srli	r3,r18,1
  8035c4:	2088703a 	and	r4,r4,r2
  8035c8:	200497fa 	slli	r2,r4,31
  8035cc:	9480004c 	andi	r18,r18,1
  8035d0:	1ca4b03a 	or	r18,r3,r18
  8035d4:	2008d07a 	srli	r4,r4,1
  8035d8:	14a4b03a 	or	r18,r2,r18
  8035dc:	003ef106 	br	8031a4 <__adddf3+0x13c>
  8035e0:	633ff844 	addi	r12,r12,-31
  8035e4:	40800820 	cmpeqi	r2,r8,32
  8035e8:	2318d83a 	srl	r12,r4,r12
  8035ec:	1000041e 	bne	r2,zero,803600 <__adddf3+0x598>
  8035f0:	00801004 	movi	r2,64
  8035f4:	1211c83a 	sub	r8,r2,r8
  8035f8:	2208983a 	sll	r4,r4,r8
  8035fc:	9124b03a 	or	r18,r18,r4
  803600:	9024c03a 	cmpne	r18,r18,zero
  803604:	9324b03a 	or	r18,r18,r12
  803608:	0009883a 	mov	r4,zero
  80360c:	0023883a 	mov	r17,zero
  803610:	003f4e06 	br	80334c <__adddf3+0x2e4>
  803614:	2cbff804 	addi	r18,r5,-32
  803618:	29000820 	cmpeqi	r4,r5,32
  80361c:	4c84d83a 	srl	r2,r9,r18
  803620:	2000041e 	bne	r4,zero,803634 <__adddf3+0x5cc>
  803624:	01001004 	movi	r4,64
  803628:	214bc83a 	sub	r5,r4,r5
  80362c:	4952983a 	sll	r9,r9,r5
  803630:	6a5ab03a 	or	r13,r13,r9
  803634:	6824c03a 	cmpne	r18,r13,zero
  803638:	90a4b03a 	or	r18,r18,r2
  80363c:	003eb806 	br	803120 <__adddf3+0xb8>
  803640:	1b88b03a 	or	r4,r3,r14
  803644:	2024c03a 	cmpne	r18,r4,zero
  803648:	6ca5c83a 	sub	r18,r13,r18
  80364c:	6c89803a 	cmpltu	r4,r13,r18
  803650:	4909c83a 	sub	r4,r9,r4
  803654:	3821883a 	mov	r16,r7
  803658:	1023883a 	mov	r17,r2
  80365c:	003eb306 	br	80312c <__adddf3+0xc4>
  803660:	1b88b03a 	or	r4,r3,r14
  803664:	20008c26 	beq	r4,zero,803898 <__adddf3+0x830>
  803668:	293fffc4 	addi	r4,r5,-1
  80366c:	2000d326 	beq	r4,zero,8039bc <__adddf3+0x954>
  803670:	2941ffd8 	cmpnei	r5,r5,2047
  803674:	28008126 	beq	r5,zero,80387c <__adddf3+0x814>
  803678:	200b883a 	mov	r5,r4
  80367c:	003f6f06 	br	80343c <__adddf3+0x3d4>
  803680:	00800804 	movi	r2,32
  803684:	1145c83a 	sub	r2,r2,r5
  803688:	6948d83a 	srl	r4,r13,r5
  80368c:	48a4983a 	sll	r18,r9,r2
  803690:	6884983a 	sll	r2,r13,r2
  803694:	494ad83a 	srl	r5,r9,r5
  803698:	9124b03a 	or	r18,r18,r4
  80369c:	101ac03a 	cmpne	r13,r2,zero
  8036a0:	9364b03a 	or	r18,r18,r13
  8036a4:	1947883a 	add	r3,r3,r5
  8036a8:	003f3806 	br	80338c <__adddf3+0x324>
  8036ac:	4081ffe0 	cmpeqi	r2,r8,2047
  8036b0:	103f3e1e 	bne	r2,zero,8033ac <__adddf3+0x344>
  8036b4:	7345883a 	add	r2,r14,r13
  8036b8:	139d803a 	cmpltu	r14,r2,r14
  8036bc:	1a49883a 	add	r4,r3,r9
  8036c0:	2389883a 	add	r4,r4,r14
  8036c4:	202497fa 	slli	r18,r4,31
  8036c8:	1004d07a 	srli	r2,r2,1
  8036cc:	2008d07a 	srli	r4,r4,1
  8036d0:	4023883a 	mov	r17,r8
  8036d4:	90a4b03a 	or	r18,r18,r2
  8036d8:	003f1c06 	br	80334c <__adddf3+0x2e4>
  8036dc:	6ba5c83a 	sub	r18,r13,r14
  8036e0:	48c9c83a 	sub	r4,r9,r3
  8036e4:	6c85803a 	cmpltu	r2,r13,r18
  8036e8:	20a7c83a 	sub	r19,r4,r2
  8036ec:	3821883a 	mov	r16,r7
  8036f0:	003e9306 	br	803140 <__adddf3+0xd8>
  8036f4:	58006f1e 	bne	r11,zero,8038b4 <__adddf3+0x84c>
  8036f8:	10001f1e 	bne	r2,zero,803778 <__adddf3+0x710>
  8036fc:	00bfffc4 	movi	r2,-1
  803700:	0021883a 	mov	r16,zero
  803704:	003f4106 	br	80340c <__adddf3+0x3a4>
  803708:	4808977a 	slli	r4,r9,29
  80370c:	00c80034 	movhi	r3,8192
  803710:	18ffffc4 	addi	r3,r3,-1
  803714:	30c4703a 	and	r2,r6,r3
  803718:	4810d0fa 	srli	r8,r9,3
  80371c:	1104b03a 	or	r2,r2,r4
  803720:	3821883a 	mov	r16,r7
  803724:	003f1006 	br	803368 <__adddf3+0x300>
  803728:	7365c83a 	sub	r18,r14,r13
  80372c:	1a47c83a 	sub	r3,r3,r9
  803730:	7489803a 	cmpltu	r4,r14,r18
  803734:	1909c83a 	sub	r4,r3,r4
  803738:	04400044 	movi	r17,1
  80373c:	003e7b06 	br	80312c <__adddf3+0xc4>
  803740:	1824977a 	slli	r18,r3,29
  803744:	01c80034 	movhi	r7,8192
  803748:	39ffffc4 	addi	r7,r7,-1
  80374c:	21c4703a 	and	r2,r4,r7
  803750:	1810d0fa 	srli	r8,r3,3
  803754:	1484b03a 	or	r2,r2,r18
  803758:	003f0306 	br	803368 <__adddf3+0x300>
  80375c:	1824977a 	slli	r18,r3,29
  803760:	01480034 	movhi	r5,8192
  803764:	297fffc4 	addi	r5,r5,-1
  803768:	2144703a 	and	r2,r4,r5
  80376c:	1810d0fa 	srli	r8,r3,3
  803770:	1484b03a 	or	r2,r2,r18
  803774:	003f2306 	br	803404 <__adddf3+0x39c>
  803778:	4806977a 	slli	r3,r9,29
  80377c:	00880034 	movhi	r2,8192
  803780:	10bfffc4 	addi	r2,r2,-1
  803784:	3084703a 	and	r2,r6,r2
  803788:	4810d0fa 	srli	r8,r9,3
  80378c:	10c4b03a 	or	r2,r2,r3
  803790:	3821883a 	mov	r16,r7
  803794:	003f1b06 	br	803404 <__adddf3+0x39c>
  803798:	1b88b03a 	or	r4,r3,r14
  80379c:	2024c03a 	cmpne	r18,r4,zero
  8037a0:	003f3406 	br	803474 <__adddf3+0x40c>
  8037a4:	2cbff804 	addi	r18,r5,-32
  8037a8:	29800820 	cmpeqi	r6,r5,32
  8037ac:	1c88d83a 	srl	r4,r3,r18
  8037b0:	3000041e 	bne	r6,zero,8037c4 <__adddf3+0x75c>
  8037b4:	01801004 	movi	r6,64
  8037b8:	314bc83a 	sub	r5,r6,r5
  8037bc:	1946983a 	sll	r3,r3,r5
  8037c0:	70dcb03a 	or	r14,r14,r3
  8037c4:	7024c03a 	cmpne	r18,r14,zero
  8037c8:	9124b03a 	or	r18,r18,r4
  8037cc:	003f9e06 	br	803648 <__adddf3+0x5e0>
  8037d0:	103efa1e 	bne	r2,zero,8033bc <__adddf3+0x354>
  8037d4:	4804977a 	slli	r2,r9,29
  8037d8:	00c80034 	movhi	r3,8192
  8037dc:	18ffffc4 	addi	r3,r3,-1
  8037e0:	30cc703a 	and	r6,r6,r3
  8037e4:	4810d0fa 	srli	r8,r9,3
  8037e8:	1184b03a 	or	r2,r2,r6
  8037ec:	003f0506 	br	803404 <__adddf3+0x39c>
  8037f0:	10004426 	beq	r2,zero,803904 <__adddf3+0x89c>
  8037f4:	4806977a 	slli	r3,r9,29
  8037f8:	00880034 	movhi	r2,8192
  8037fc:	10bfffc4 	addi	r2,r2,-1
  803800:	3084703a 	and	r2,r6,r2
  803804:	4810d0fa 	srli	r8,r9,3
  803808:	10c4b03a 	or	r2,r2,r3
  80380c:	3821883a 	mov	r16,r7
  803810:	003ed706 	br	803370 <__adddf3+0x308>
  803814:	6ba5c83a 	sub	r18,r13,r14
  803818:	48c7c83a 	sub	r3,r9,r3
  80381c:	6c85803a 	cmpltu	r2,r13,r18
  803820:	1889c83a 	sub	r4,r3,r2
  803824:	3821883a 	mov	r16,r7
  803828:	04400044 	movi	r17,1
  80382c:	003e3f06 	br	80312c <__adddf3+0xc4>
  803830:	180a977a 	slli	r5,r3,29
  803834:	00880034 	movhi	r2,8192
  803838:	10bfffc4 	addi	r2,r2,-1
  80383c:	2084703a 	and	r2,r4,r2
  803840:	1810d0fa 	srli	r8,r3,3
  803844:	1144b03a 	or	r2,r2,r5
  803848:	003eee06 	br	803404 <__adddf3+0x39c>
  80384c:	7365c83a 	sub	r18,r14,r13
  803850:	7485803a 	cmpltu	r2,r14,r18
  803854:	1a49c83a 	sub	r4,r3,r9
  803858:	2089c83a 	sub	r4,r4,r2
  80385c:	2080202c 	andhi	r2,r4,128
  803860:	10002626 	beq	r2,zero,8038fc <__adddf3+0x894>
  803864:	6ba5c83a 	sub	r18,r13,r14
  803868:	48c7c83a 	sub	r3,r9,r3
  80386c:	6c85803a 	cmpltu	r2,r13,r18
  803870:	1889c83a 	sub	r4,r3,r2
  803874:	3821883a 	mov	r16,r7
  803878:	003e4a06 	br	8031a4 <__adddf3+0x13c>
  80387c:	4806977a 	slli	r3,r9,29
  803880:	00880034 	movhi	r2,8192
  803884:	10bfffc4 	addi	r2,r2,-1
  803888:	3084703a 	and	r2,r6,r2
  80388c:	4810d0fa 	srli	r8,r9,3
  803890:	10c4b03a 	or	r2,r2,r3
  803894:	003edb06 	br	803404 <__adddf3+0x39c>
  803898:	4806977a 	slli	r3,r9,29
  80389c:	00880034 	movhi	r2,8192
  8038a0:	10bfffc4 	addi	r2,r2,-1
  8038a4:	3084703a 	and	r2,r6,r2
  8038a8:	4810d0fa 	srli	r8,r9,3
  8038ac:	10c4b03a 	or	r2,r2,r3
  8038b0:	003ead06 	br	803368 <__adddf3+0x300>
  8038b4:	180a977a 	slli	r5,r3,29
  8038b8:	1810d0fa 	srli	r8,r3,3
  8038bc:	10002f26 	beq	r2,zero,80397c <__adddf3+0x914>
  8038c0:	00c80034 	movhi	r3,8192
  8038c4:	18ffffc4 	addi	r3,r3,-1
  8038c8:	20c4703a 	and	r2,r4,r3
  8038cc:	4100022c 	andhi	r4,r8,8
  8038d0:	1144b03a 	or	r2,r2,r5
  8038d4:	203ecb26 	beq	r4,zero,803404 <__adddf3+0x39c>
  8038d8:	4808d0fa 	srli	r4,r9,3
  8038dc:	2140022c 	andhi	r5,r4,8
  8038e0:	283ec81e 	bne	r5,zero,803404 <__adddf3+0x39c>
  8038e4:	4812977a 	slli	r9,r9,29
  8038e8:	30c4703a 	and	r2,r6,r3
  8038ec:	3821883a 	mov	r16,r7
  8038f0:	1244b03a 	or	r2,r2,r9
  8038f4:	2011883a 	mov	r8,r4
  8038f8:	003ec206 	br	803404 <__adddf3+0x39c>
  8038fc:	9104b03a 	or	r2,r18,r4
  803900:	103e921e 	bne	r2,zero,80334c <__adddf3+0x2e4>
  803904:	0011883a 	mov	r8,zero
  803908:	100b883a 	mov	r5,r2
  80390c:	0021883a 	mov	r16,zero
  803910:	003e9706 	br	803370 <__adddf3+0x308>
  803914:	4804977a 	slli	r2,r9,29
  803918:	00c80034 	movhi	r3,8192
  80391c:	18ffffc4 	addi	r3,r3,-1
  803920:	30cc703a 	and	r6,r6,r3
  803924:	4810d0fa 	srli	r8,r9,3
  803928:	1184b03a 	or	r2,r2,r6
  80392c:	003e9006 	br	803370 <__adddf3+0x308>
  803930:	7365883a 	add	r18,r14,r13
  803934:	1a47883a 	add	r3,r3,r9
  803938:	9389803a 	cmpltu	r4,r18,r14
  80393c:	1909883a 	add	r4,r3,r4
  803940:	2080202c 	andhi	r2,r4,128
  803944:	103e8126 	beq	r2,zero,80334c <__adddf3+0x2e4>
  803948:	00bfe034 	movhi	r2,65408
  80394c:	10bfffc4 	addi	r2,r2,-1
  803950:	2088703a 	and	r4,r4,r2
  803954:	04400044 	movi	r17,1
  803958:	003e7c06 	br	80334c <__adddf3+0x2e4>
  80395c:	4804977a 	slli	r2,r9,29
  803960:	00c80034 	movhi	r3,8192
  803964:	18ffffc4 	addi	r3,r3,-1
  803968:	30cc703a 	and	r6,r6,r3
  80396c:	4810d0fa 	srli	r8,r9,3
  803970:	1184b03a 	or	r2,r2,r6
  803974:	3821883a 	mov	r16,r7
  803978:	003ea206 	br	803404 <__adddf3+0x39c>
  80397c:	00880034 	movhi	r2,8192
  803980:	10bfffc4 	addi	r2,r2,-1
  803984:	2084703a 	and	r2,r4,r2
  803988:	1144b03a 	or	r2,r2,r5
  80398c:	003e9d06 	br	803404 <__adddf3+0x39c>
  803990:	293ff804 	addi	r4,r5,-32
  803994:	29800820 	cmpeqi	r6,r5,32
  803998:	1908d83a 	srl	r4,r3,r4
  80399c:	3000041e 	bne	r6,zero,8039b0 <__adddf3+0x948>
  8039a0:	01801004 	movi	r6,64
  8039a4:	314bc83a 	sub	r5,r6,r5
  8039a8:	1946983a 	sll	r3,r3,r5
  8039ac:	70dcb03a 	or	r14,r14,r3
  8039b0:	7024c03a 	cmpne	r18,r14,zero
  8039b4:	9124b03a 	or	r18,r18,r4
  8039b8:	003eae06 	br	803474 <__adddf3+0x40c>
  8039bc:	7365883a 	add	r18,r14,r13
  8039c0:	1a47883a 	add	r3,r3,r9
  8039c4:	9345803a 	cmpltu	r2,r18,r13
  8039c8:	1889883a 	add	r4,r3,r2
  8039cc:	003e5c06 	br	803340 <__adddf3+0x2d8>
  8039d0:	0005883a 	mov	r2,zero
  8039d4:	0141ffc4 	movi	r5,2047
  8039d8:	0007883a 	mov	r3,zero
  8039dc:	003e0806 	br	803200 <__adddf3+0x198>

008039e0 <__divdf3>:
  8039e0:	2810d53a 	srli	r8,r5,20
  8039e4:	defff004 	addi	sp,sp,-64
  8039e8:	dc000615 	stw	r16,24(sp)
  8039ec:	04000434 	movhi	r16,16
  8039f0:	df000e15 	stw	fp,56(sp)
  8039f4:	ddc00d15 	stw	r23,52(sp)
  8039f8:	dd800c15 	stw	r22,48(sp)
  8039fc:	dd000a15 	stw	r20,40(sp)
  803a00:	843fffc4 	addi	r16,r16,-1
  803a04:	dfc00f15 	stw	ra,60(sp)
  803a08:	dd400b15 	stw	r21,44(sp)
  803a0c:	dcc00915 	stw	r19,36(sp)
  803a10:	dc800815 	stw	r18,32(sp)
  803a14:	dc400715 	stw	r17,28(sp)
  803a18:	4201ffcc 	andi	r8,r8,2047
  803a1c:	282ed7fa 	srli	r23,r5,31
  803a20:	3039883a 	mov	fp,r6
  803a24:	382d883a 	mov	r22,r7
  803a28:	2029883a 	mov	r20,r4
  803a2c:	2c20703a 	and	r16,r5,r16
  803a30:	40005326 	beq	r8,zero,803b80 <__divdf3+0x1a0>
  803a34:	4081ffe0 	cmpeqi	r2,r8,2047
  803a38:	1000641e 	bne	r2,zero,803bcc <__divdf3+0x1ec>
  803a3c:	2026d77a 	srli	r19,r4,29
  803a40:	800a90fa 	slli	r5,r16,3
  803a44:	202890fa 	slli	r20,r4,3
  803a48:	44bf0044 	addi	r18,r8,-1023
  803a4c:	994ab03a 	or	r5,r19,r5
  803a50:	2cc02034 	orhi	r19,r5,128
  803a54:	0021883a 	mov	r16,zero
  803a58:	0023883a 	mov	r17,zero
  803a5c:	b010d53a 	srli	r8,r22,20
  803a60:	00c00434 	movhi	r3,16
  803a64:	18ffffc4 	addi	r3,r3,-1
  803a68:	4201ffcc 	andi	r8,r8,2047
  803a6c:	b02ad7fa 	srli	r21,r22,31
  803a70:	b0ec703a 	and	r22,r22,r3
  803a74:	40005c26 	beq	r8,zero,803be8 <__divdf3+0x208>
  803a78:	4081ffe0 	cmpeqi	r2,r8,2047
  803a7c:	1000201e 	bne	r2,zero,803b00 <__divdf3+0x120>
  803a80:	b00690fa 	slli	r3,r22,3
  803a84:	e004d77a 	srli	r2,fp,29
  803a88:	e01490fa 	slli	r10,fp,3
  803a8c:	423f0044 	addi	r8,r8,-1023
  803a90:	10c6b03a 	or	r3,r2,r3
  803a94:	1d802034 	orhi	r22,r3,128
  803a98:	9225c83a 	sub	r18,r18,r8
  803a9c:	0007883a 	mov	r3,zero
  803aa0:	80800428 	cmpgeui	r2,r16,16
  803aa4:	bd52f03a 	xor	r9,r23,r21
  803aa8:	1000a81e 	bne	r2,zero,803d4c <__divdf3+0x36c>
  803aac:	800c90ba 	slli	r6,r16,2
  803ab0:	00802034 	movhi	r2,128
  803ab4:	3085883a 	add	r2,r6,r2
  803ab8:	108eb017 	ldw	r2,15040(r2)
  803abc:	1000683a 	jmp	r2
  803ac0:	00803d4c 	andi	r2,zero,245
  803ac4:	00803b70 	cmpltui	r2,zero,237
  803ac8:	00803b1c 	xori	r2,zero,236
  803acc:	00803c94 	movui	r2,242
  803ad0:	00803b1c 	xori	r2,zero,236
  803ad4:	00803cf0 	cmpltui	r2,zero,243
  803ad8:	00803b1c 	xori	r2,zero,236
  803adc:	00803c94 	movui	r2,242
  803ae0:	00803b70 	cmpltui	r2,zero,237
  803ae4:	00803b70 	cmpltui	r2,zero,237
  803ae8:	00803cf0 	cmpltui	r2,zero,243
  803aec:	00803c94 	movui	r2,242
  803af0:	00803c2c 	andhi	r2,zero,240
  803af4:	00803c2c 	andhi	r2,zero,240
  803af8:	00803c2c 	andhi	r2,zero,240
  803afc:	00803d08 	cmpgei	r2,zero,244
  803b00:	b714b03a 	or	r10,r22,fp
  803b04:	94be0044 	addi	r18,r18,-2047
  803b08:	5000671e 	bne	r10,zero,803ca8 <__divdf3+0x2c8>
  803b0c:	84000094 	ori	r16,r16,2
  803b10:	002d883a 	mov	r22,zero
  803b14:	00c00084 	movi	r3,2
  803b18:	003fe106 	br	803aa0 <__divdf3+0xc0>
  803b1c:	0007883a 	mov	r3,zero
  803b20:	000b883a 	mov	r5,zero
  803b24:	0029883a 	mov	r20,zero
  803b28:	1806953a 	slli	r3,r3,20
  803b2c:	4a403fcc 	andi	r9,r9,255
  803b30:	481297fa 	slli	r9,r9,31
  803b34:	1946b03a 	or	r3,r3,r5
  803b38:	a005883a 	mov	r2,r20
  803b3c:	1a46b03a 	or	r3,r3,r9
  803b40:	dfc00f17 	ldw	ra,60(sp)
  803b44:	df000e17 	ldw	fp,56(sp)
  803b48:	ddc00d17 	ldw	r23,52(sp)
  803b4c:	dd800c17 	ldw	r22,48(sp)
  803b50:	dd400b17 	ldw	r21,44(sp)
  803b54:	dd000a17 	ldw	r20,40(sp)
  803b58:	dcc00917 	ldw	r19,36(sp)
  803b5c:	dc800817 	ldw	r18,32(sp)
  803b60:	dc400717 	ldw	r17,28(sp)
  803b64:	dc000617 	ldw	r16,24(sp)
  803b68:	dec01004 	addi	sp,sp,64
  803b6c:	f800283a 	ret
  803b70:	00c1ffc4 	movi	r3,2047
  803b74:	000b883a 	mov	r5,zero
  803b78:	0029883a 	mov	r20,zero
  803b7c:	003fea06 	br	803b28 <__divdf3+0x148>
  803b80:	2426b03a 	or	r19,r4,r16
  803b84:	2023883a 	mov	r17,r4
  803b88:	98004f26 	beq	r19,zero,803cc8 <__divdf3+0x2e8>
  803b8c:	80017b26 	beq	r16,zero,80417c <__divdf3+0x79c>
  803b90:	8009883a 	mov	r4,r16
  803b94:	08059080 	call	805908 <__clzsi2>
  803b98:	113ffd44 	addi	r4,r2,-11
  803b9c:	00c00744 	movi	r3,29
  803ba0:	14fffe04 	addi	r19,r2,-8
  803ba4:	1907c83a 	sub	r3,r3,r4
  803ba8:	84ca983a 	sll	r5,r16,r19
  803bac:	88c6d83a 	srl	r3,r17,r3
  803bb0:	8ce8983a 	sll	r20,r17,r19
  803bb4:	1966b03a 	or	r19,r3,r5
  803bb8:	023f0344 	movi	r8,-1011
  803bbc:	40a5c83a 	sub	r18,r8,r2
  803bc0:	0021883a 	mov	r16,zero
  803bc4:	0023883a 	mov	r17,zero
  803bc8:	003fa406 	br	803a5c <__divdf3+0x7c>
  803bcc:	2426b03a 	or	r19,r4,r16
  803bd0:	9800421e 	bne	r19,zero,803cdc <__divdf3+0x2fc>
  803bd4:	0029883a 	mov	r20,zero
  803bd8:	04000204 	movi	r16,8
  803bdc:	0481ffc4 	movi	r18,2047
  803be0:	04400084 	movi	r17,2
  803be4:	003f9d06 	br	803a5c <__divdf3+0x7c>
  803be8:	b714b03a 	or	r10,r22,fp
  803bec:	50003226 	beq	r10,zero,803cb8 <__divdf3+0x2d8>
  803bf0:	b0016c26 	beq	r22,zero,8041a4 <__divdf3+0x7c4>
  803bf4:	b009883a 	mov	r4,r22
  803bf8:	08059080 	call	805908 <__clzsi2>
  803bfc:	117ffd44 	addi	r5,r2,-11
  803c00:	01000744 	movi	r4,29
  803c04:	12bffe04 	addi	r10,r2,-8
  803c08:	2149c83a 	sub	r4,r4,r5
  803c0c:	b286983a 	sll	r3,r22,r10
  803c10:	e108d83a 	srl	r4,fp,r4
  803c14:	e294983a 	sll	r10,fp,r10
  803c18:	20ecb03a 	or	r22,r4,r3
  803c1c:	1491883a 	add	r8,r2,r18
  803c20:	4480fcc4 	addi	r18,r8,1011
  803c24:	0007883a 	mov	r3,zero
  803c28:	003f9d06 	br	803aa0 <__divdf3+0xc0>
  803c2c:	b813883a 	mov	r9,r23
  803c30:	888000a0 	cmpeqi	r2,r17,2
  803c34:	103fce1e 	bne	r2,zero,803b70 <__divdf3+0x190>
  803c38:	888000e0 	cmpeqi	r2,r17,3
  803c3c:	1001ac1e 	bne	r2,zero,8042f0 <__divdf3+0x910>
  803c40:	88800060 	cmpeqi	r2,r17,1
  803c44:	103fb51e 	bne	r2,zero,803b1c <__divdf3+0x13c>
  803c48:	9440ffc4 	addi	r17,r18,1023
  803c4c:	04411c0e 	bge	zero,r17,8040c0 <__divdf3+0x6e0>
  803c50:	a08001cc 	andi	r2,r20,7
  803c54:	1001831e 	bne	r2,zero,804264 <__divdf3+0x884>
  803c58:	a008d0fa 	srli	r4,r20,3
  803c5c:	9880402c 	andhi	r2,r19,256
  803c60:	10000426 	beq	r2,zero,803c74 <__divdf3+0x294>
  803c64:	00bfc034 	movhi	r2,65280
  803c68:	10bfffc4 	addi	r2,r2,-1
  803c6c:	98a6703a 	and	r19,r19,r2
  803c70:	94410004 	addi	r17,r18,1024
  803c74:	8881ffc8 	cmpgei	r2,r17,2047
  803c78:	103fbd1e 	bne	r2,zero,803b70 <__divdf3+0x190>
  803c7c:	9828977a 	slli	r20,r19,29
  803c80:	980a927a 	slli	r5,r19,9
  803c84:	88c1ffcc 	andi	r3,r17,2047
  803c88:	a128b03a 	or	r20,r20,r4
  803c8c:	280ad33a 	srli	r5,r5,12
  803c90:	003fa506 	br	803b28 <__divdf3+0x148>
  803c94:	a813883a 	mov	r9,r21
  803c98:	b027883a 	mov	r19,r22
  803c9c:	5029883a 	mov	r20,r10
  803ca0:	1823883a 	mov	r17,r3
  803ca4:	003fe206 	br	803c30 <__divdf3+0x250>
  803ca8:	840000d4 	ori	r16,r16,3
  803cac:	e015883a 	mov	r10,fp
  803cb0:	00c000c4 	movi	r3,3
  803cb4:	003f7a06 	br	803aa0 <__divdf3+0xc0>
  803cb8:	84000054 	ori	r16,r16,1
  803cbc:	002d883a 	mov	r22,zero
  803cc0:	00c00044 	movi	r3,1
  803cc4:	003f7606 	br	803aa0 <__divdf3+0xc0>
  803cc8:	0029883a 	mov	r20,zero
  803ccc:	04000104 	movi	r16,4
  803cd0:	0025883a 	mov	r18,zero
  803cd4:	04400044 	movi	r17,1
  803cd8:	003f6006 	br	803a5c <__divdf3+0x7c>
  803cdc:	8027883a 	mov	r19,r16
  803ce0:	0481ffc4 	movi	r18,2047
  803ce4:	04000304 	movi	r16,12
  803ce8:	044000c4 	movi	r17,3
  803cec:	003f5b06 	br	803a5c <__divdf3+0x7c>
  803cf0:	01400434 	movhi	r5,16
  803cf4:	0013883a 	mov	r9,zero
  803cf8:	297fffc4 	addi	r5,r5,-1
  803cfc:	053fffc4 	movi	r20,-1
  803d00:	00c1ffc4 	movi	r3,2047
  803d04:	003f8806 	br	803b28 <__divdf3+0x148>
  803d08:	9880022c 	andhi	r2,r19,8
  803d0c:	10000926 	beq	r2,zero,803d34 <__divdf3+0x354>
  803d10:	b080022c 	andhi	r2,r22,8
  803d14:	1000071e 	bne	r2,zero,803d34 <__divdf3+0x354>
  803d18:	00800434 	movhi	r2,16
  803d1c:	b1400234 	orhi	r5,r22,8
  803d20:	10bfffc4 	addi	r2,r2,-1
  803d24:	288a703a 	and	r5,r5,r2
  803d28:	a813883a 	mov	r9,r21
  803d2c:	5029883a 	mov	r20,r10
  803d30:	003ff306 	br	803d00 <__divdf3+0x320>
  803d34:	00800434 	movhi	r2,16
  803d38:	99400234 	orhi	r5,r19,8
  803d3c:	10bfffc4 	addi	r2,r2,-1
  803d40:	288a703a 	and	r5,r5,r2
  803d44:	b813883a 	mov	r9,r23
  803d48:	003fed06 	br	803d00 <__divdf3+0x320>
  803d4c:	b4c10536 	bltu	r22,r19,804164 <__divdf3+0x784>
  803d50:	b4c10326 	beq	r22,r19,804160 <__divdf3+0x780>
  803d54:	94bfffc4 	addi	r18,r18,-1
  803d58:	a039883a 	mov	fp,r20
  803d5c:	9821883a 	mov	r16,r19
  803d60:	0023883a 	mov	r17,zero
  803d64:	b006923a 	slli	r3,r22,8
  803d68:	502cd63a 	srli	r22,r10,24
  803d6c:	8009883a 	mov	r4,r16
  803d70:	182ed43a 	srli	r23,r3,16
  803d74:	b0ecb03a 	or	r22,r22,r3
  803d78:	da400015 	stw	r9,0(sp)
  803d7c:	b80b883a 	mov	r5,r23
  803d80:	502a923a 	slli	r21,r10,8
  803d84:	b53fffcc 	andi	r20,r22,65535
  803d88:	08027500 	call	802750 <__udivsi3>
  803d8c:	100b883a 	mov	r5,r2
  803d90:	a009883a 	mov	r4,r20
  803d94:	1027883a 	mov	r19,r2
  803d98:	080595c0 	call	80595c <__mulsi3>
  803d9c:	8009883a 	mov	r4,r16
  803da0:	b80b883a 	mov	r5,r23
  803da4:	1021883a 	mov	r16,r2
  803da8:	08027b40 	call	8027b4 <__umodsi3>
  803dac:	1004943a 	slli	r2,r2,16
  803db0:	e008d43a 	srli	r4,fp,16
  803db4:	da400017 	ldw	r9,0(sp)
  803db8:	2088b03a 	or	r4,r4,r2
  803dbc:	2400042e 	bgeu	r4,r16,803dd0 <__divdf3+0x3f0>
  803dc0:	2589883a 	add	r4,r4,r22
  803dc4:	98bfffc4 	addi	r2,r19,-1
  803dc8:	2581082e 	bgeu	r4,r22,8041ec <__divdf3+0x80c>
  803dcc:	1027883a 	mov	r19,r2
  803dd0:	2421c83a 	sub	r16,r4,r16
  803dd4:	b80b883a 	mov	r5,r23
  803dd8:	8009883a 	mov	r4,r16
  803ddc:	da400215 	stw	r9,8(sp)
  803de0:	08027500 	call	802750 <__udivsi3>
  803de4:	100b883a 	mov	r5,r2
  803de8:	a009883a 	mov	r4,r20
  803dec:	d8800115 	stw	r2,4(sp)
  803df0:	080595c0 	call	80595c <__mulsi3>
  803df4:	b80b883a 	mov	r5,r23
  803df8:	8009883a 	mov	r4,r16
  803dfc:	d8800015 	stw	r2,0(sp)
  803e00:	08027b40 	call	8027b4 <__umodsi3>
  803e04:	100c943a 	slli	r6,r2,16
  803e08:	d8c00017 	ldw	r3,0(sp)
  803e0c:	e73fffcc 	andi	fp,fp,65535
  803e10:	e18cb03a 	or	r6,fp,r6
  803e14:	d9c00117 	ldw	r7,4(sp)
  803e18:	da400217 	ldw	r9,8(sp)
  803e1c:	30c0042e 	bgeu	r6,r3,803e30 <__divdf3+0x450>
  803e20:	358d883a 	add	r6,r6,r22
  803e24:	38bfffc4 	addi	r2,r7,-1
  803e28:	3580ec2e 	bgeu	r6,r22,8041dc <__divdf3+0x7fc>
  803e2c:	100f883a 	mov	r7,r2
  803e30:	9826943a 	slli	r19,r19,16
  803e34:	af3fffcc 	andi	fp,r21,65535
  803e38:	30c7c83a 	sub	r3,r6,r3
  803e3c:	99e6b03a 	or	r19,r19,r7
  803e40:	980ed43a 	srli	r7,r19,16
  803e44:	9abfffcc 	andi	r10,r19,65535
  803e48:	5009883a 	mov	r4,r10
  803e4c:	e00b883a 	mov	r5,fp
  803e50:	da400515 	stw	r9,20(sp)
  803e54:	d8c00315 	stw	r3,12(sp)
  803e58:	da800415 	stw	r10,16(sp)
  803e5c:	d9c00015 	stw	r7,0(sp)
  803e60:	080595c0 	call	80595c <__mulsi3>
  803e64:	d9c00017 	ldw	r7,0(sp)
  803e68:	e00b883a 	mov	r5,fp
  803e6c:	d8800215 	stw	r2,8(sp)
  803e70:	3809883a 	mov	r4,r7
  803e74:	080595c0 	call	80595c <__mulsi3>
  803e78:	d9c00017 	ldw	r7,0(sp)
  803e7c:	a820d43a 	srli	r16,r21,16
  803e80:	d8800115 	stw	r2,4(sp)
  803e84:	3809883a 	mov	r4,r7
  803e88:	800b883a 	mov	r5,r16
  803e8c:	080595c0 	call	80595c <__mulsi3>
  803e90:	da800417 	ldw	r10,16(sp)
  803e94:	8009883a 	mov	r4,r16
  803e98:	d8800015 	stw	r2,0(sp)
  803e9c:	500b883a 	mov	r5,r10
  803ea0:	080595c0 	call	80595c <__mulsi3>
  803ea4:	d9800217 	ldw	r6,8(sp)
  803ea8:	d9c00117 	ldw	r7,4(sp)
  803eac:	da000017 	ldw	r8,0(sp)
  803eb0:	3008d43a 	srli	r4,r6,16
  803eb4:	11c5883a 	add	r2,r2,r7
  803eb8:	d8c00317 	ldw	r3,12(sp)
  803ebc:	2089883a 	add	r4,r4,r2
  803ec0:	da400517 	ldw	r9,20(sp)
  803ec4:	21c0022e 	bgeu	r4,r7,803ed0 <__divdf3+0x4f0>
  803ec8:	00800074 	movhi	r2,1
  803ecc:	4091883a 	add	r8,r8,r2
  803ed0:	200ad43a 	srli	r5,r4,16
  803ed4:	2008943a 	slli	r4,r4,16
  803ed8:	31bfffcc 	andi	r6,r6,65535
  803edc:	2a0b883a 	add	r5,r5,r8
  803ee0:	218d883a 	add	r6,r4,r6
  803ee4:	19409436 	bltu	r3,r5,804138 <__divdf3+0x758>
  803ee8:	19409226 	beq	r3,r5,804134 <__divdf3+0x754>
  803eec:	898dc83a 	sub	r6,r17,r6
  803ef0:	89a3803a 	cmpltu	r17,r17,r6
  803ef4:	1947c83a 	sub	r3,r3,r5
  803ef8:	1c47c83a 	sub	r3,r3,r17
  803efc:	9440ffc4 	addi	r17,r18,1023
  803f00:	b0c0d326 	beq	r22,r3,804250 <__divdf3+0x870>
  803f04:	1809883a 	mov	r4,r3
  803f08:	b80b883a 	mov	r5,r23
  803f0c:	d9800315 	stw	r6,12(sp)
  803f10:	da400215 	stw	r9,8(sp)
  803f14:	d8c00015 	stw	r3,0(sp)
  803f18:	08027500 	call	802750 <__udivsi3>
  803f1c:	100b883a 	mov	r5,r2
  803f20:	a009883a 	mov	r4,r20
  803f24:	d8800115 	stw	r2,4(sp)
  803f28:	080595c0 	call	80595c <__mulsi3>
  803f2c:	d8c00017 	ldw	r3,0(sp)
  803f30:	b80b883a 	mov	r5,r23
  803f34:	d8800015 	stw	r2,0(sp)
  803f38:	1809883a 	mov	r4,r3
  803f3c:	08027b40 	call	8027b4 <__umodsi3>
  803f40:	d9800317 	ldw	r6,12(sp)
  803f44:	1006943a 	slli	r3,r2,16
  803f48:	da000017 	ldw	r8,0(sp)
  803f4c:	3008d43a 	srli	r4,r6,16
  803f50:	d9c00117 	ldw	r7,4(sp)
  803f54:	da400217 	ldw	r9,8(sp)
  803f58:	20c6b03a 	or	r3,r4,r3
  803f5c:	1a00062e 	bgeu	r3,r8,803f78 <__divdf3+0x598>
  803f60:	1d87883a 	add	r3,r3,r22
  803f64:	38bfffc4 	addi	r2,r7,-1
  803f68:	1d80c836 	bltu	r3,r22,80428c <__divdf3+0x8ac>
  803f6c:	1a00c72e 	bgeu	r3,r8,80428c <__divdf3+0x8ac>
  803f70:	39ffff84 	addi	r7,r7,-2
  803f74:	1d87883a 	add	r3,r3,r22
  803f78:	1a07c83a 	sub	r3,r3,r8
  803f7c:	1809883a 	mov	r4,r3
  803f80:	b80b883a 	mov	r5,r23
  803f84:	d9800415 	stw	r6,16(sp)
  803f88:	da400315 	stw	r9,12(sp)
  803f8c:	d9c00215 	stw	r7,8(sp)
  803f90:	d8c00115 	stw	r3,4(sp)
  803f94:	08027500 	call	802750 <__udivsi3>
  803f98:	100b883a 	mov	r5,r2
  803f9c:	a009883a 	mov	r4,r20
  803fa0:	d8800015 	stw	r2,0(sp)
  803fa4:	080595c0 	call	80595c <__mulsi3>
  803fa8:	d8c00117 	ldw	r3,4(sp)
  803fac:	b80b883a 	mov	r5,r23
  803fb0:	102f883a 	mov	r23,r2
  803fb4:	1809883a 	mov	r4,r3
  803fb8:	08027b40 	call	8027b4 <__umodsi3>
  803fbc:	d9800417 	ldw	r6,16(sp)
  803fc0:	1004943a 	slli	r2,r2,16
  803fc4:	da000017 	ldw	r8,0(sp)
  803fc8:	31bfffcc 	andi	r6,r6,65535
  803fcc:	308cb03a 	or	r6,r6,r2
  803fd0:	d9c00217 	ldw	r7,8(sp)
  803fd4:	da400317 	ldw	r9,12(sp)
  803fd8:	35c0062e 	bgeu	r6,r23,803ff4 <__divdf3+0x614>
  803fdc:	358d883a 	add	r6,r6,r22
  803fe0:	40bfffc4 	addi	r2,r8,-1
  803fe4:	3580a736 	bltu	r6,r22,804284 <__divdf3+0x8a4>
  803fe8:	35c0a62e 	bgeu	r6,r23,804284 <__divdf3+0x8a4>
  803fec:	423fff84 	addi	r8,r8,-2
  803ff0:	358d883a 	add	r6,r6,r22
  803ff4:	3828943a 	slli	r20,r7,16
  803ff8:	35d5c83a 	sub	r10,r6,r23
  803ffc:	e009883a 	mov	r4,fp
  804000:	a228b03a 	or	r20,r20,r8
  804004:	a1ffffcc 	andi	r7,r20,65535
  804008:	a02ed43a 	srli	r23,r20,16
  80400c:	380b883a 	mov	r5,r7
  804010:	da400315 	stw	r9,12(sp)
  804014:	da800215 	stw	r10,8(sp)
  804018:	d9c00115 	stw	r7,4(sp)
  80401c:	080595c0 	call	80595c <__mulsi3>
  804020:	e00b883a 	mov	r5,fp
  804024:	b809883a 	mov	r4,r23
  804028:	1039883a 	mov	fp,r2
  80402c:	080595c0 	call	80595c <__mulsi3>
  804030:	8009883a 	mov	r4,r16
  804034:	b80b883a 	mov	r5,r23
  804038:	d8800015 	stw	r2,0(sp)
  80403c:	080595c0 	call	80595c <__mulsi3>
  804040:	d9c00117 	ldw	r7,4(sp)
  804044:	8009883a 	mov	r4,r16
  804048:	1021883a 	mov	r16,r2
  80404c:	380b883a 	mov	r5,r7
  804050:	080595c0 	call	80595c <__mulsi3>
  804054:	d9800017 	ldw	r6,0(sp)
  804058:	e006d43a 	srli	r3,fp,16
  80405c:	da800217 	ldw	r10,8(sp)
  804060:	1185883a 	add	r2,r2,r6
  804064:	1887883a 	add	r3,r3,r2
  804068:	da400317 	ldw	r9,12(sp)
  80406c:	1980022e 	bgeu	r3,r6,804078 <__divdf3+0x698>
  804070:	00800074 	movhi	r2,1
  804074:	80a1883a 	add	r16,r16,r2
  804078:	1808d43a 	srli	r4,r3,16
  80407c:	1806943a 	slli	r3,r3,16
  804080:	e73fffcc 	andi	fp,fp,65535
  804084:	2409883a 	add	r4,r4,r16
  804088:	1f07883a 	add	r3,r3,fp
  80408c:	51000436 	bltu	r10,r4,8040a0 <__divdf3+0x6c0>
  804090:	51000226 	beq	r10,r4,80409c <__divdf3+0x6bc>
  804094:	a5000054 	ori	r20,r20,1
  804098:	003eec06 	br	803c4c <__divdf3+0x26c>
  80409c:	183eeb26 	beq	r3,zero,803c4c <__divdf3+0x26c>
  8040a0:	b28d883a 	add	r6,r22,r10
  8040a4:	a0bfffc4 	addi	r2,r20,-1
  8040a8:	35806536 	bltu	r6,r22,804240 <__divdf3+0x860>
  8040ac:	31008036 	bltu	r6,r4,8042b0 <__divdf3+0x8d0>
  8040b0:	31009426 	beq	r6,r4,804304 <__divdf3+0x924>
  8040b4:	1029883a 	mov	r20,r2
  8040b8:	003ff606 	br	804094 <__divdf3+0x6b4>
  8040bc:	053fffc4 	movi	r20,-1
  8040c0:	01400044 	movi	r5,1
  8040c4:	2c4bc83a 	sub	r5,r5,r17
  8040c8:	28800e48 	cmpgei	r2,r5,57
  8040cc:	103e931e 	bne	r2,zero,803b1c <__divdf3+0x13c>
  8040d0:	28800808 	cmpgei	r2,r5,32
  8040d4:	1000491e 	bne	r2,zero,8041fc <__divdf3+0x81c>
  8040d8:	92010784 	addi	r8,r18,1054
  8040dc:	9a04983a 	sll	r2,r19,r8
  8040e0:	a146d83a 	srl	r3,r20,r5
  8040e4:	a210983a 	sll	r8,r20,r8
  8040e8:	994ad83a 	srl	r5,r19,r5
  8040ec:	10e8b03a 	or	r20,r2,r3
  8040f0:	4010c03a 	cmpne	r8,r8,zero
  8040f4:	a228b03a 	or	r20,r20,r8
  8040f8:	a08001cc 	andi	r2,r20,7
  8040fc:	10000726 	beq	r2,zero,80411c <__divdf3+0x73c>
  804100:	a08003cc 	andi	r2,r20,15
  804104:	10800120 	cmpeqi	r2,r2,4
  804108:	1000041e 	bne	r2,zero,80411c <__divdf3+0x73c>
  80410c:	a0800104 	addi	r2,r20,4
  804110:	1529803a 	cmpltu	r20,r2,r20
  804114:	2d0b883a 	add	r5,r5,r20
  804118:	1029883a 	mov	r20,r2
  80411c:	2880202c 	andhi	r2,r5,128
  804120:	10006f26 	beq	r2,zero,8042e0 <__divdf3+0x900>
  804124:	00c00044 	movi	r3,1
  804128:	000b883a 	mov	r5,zero
  80412c:	0029883a 	mov	r20,zero
  804130:	003e7d06 	br	803b28 <__divdf3+0x148>
  804134:	89bf6d2e 	bgeu	r17,r6,803eec <__divdf3+0x50c>
  804138:	8d63883a 	add	r17,r17,r21
  80413c:	8d45803a 	cmpltu	r2,r17,r21
  804140:	1585883a 	add	r2,r2,r22
  804144:	1887883a 	add	r3,r3,r2
  804148:	98bfffc4 	addi	r2,r19,-1
  80414c:	b0c0202e 	bgeu	r22,r3,8041d0 <__divdf3+0x7f0>
  804150:	19405136 	bltu	r3,r5,804298 <__divdf3+0x8b8>
  804154:	28c04f26 	beq	r5,r3,804294 <__divdf3+0x8b4>
  804158:	1027883a 	mov	r19,r2
  80415c:	003f6306 	br	803eec <__divdf3+0x50c>
  804160:	a2befc36 	bltu	r20,r10,803d54 <__divdf3+0x374>
  804164:	983897fa 	slli	fp,r19,31
  804168:	a004d07a 	srli	r2,r20,1
  80416c:	9820d07a 	srli	r16,r19,1
  804170:	a02297fa 	slli	r17,r20,31
  804174:	e0b8b03a 	or	fp,fp,r2
  804178:	003efa06 	br	803d64 <__divdf3+0x384>
  80417c:	08059080 	call	805908 <__clzsi2>
  804180:	11000544 	addi	r4,r2,21
  804184:	20c00748 	cmpgei	r3,r4,29
  804188:	100b883a 	mov	r5,r2
  80418c:	10800804 	addi	r2,r2,32
  804190:	183e8226 	beq	r3,zero,803b9c <__divdf3+0x1bc>
  804194:	297ffe04 	addi	r5,r5,-8
  804198:	a166983a 	sll	r19,r20,r5
  80419c:	0029883a 	mov	r20,zero
  8041a0:	003e8506 	br	803bb8 <__divdf3+0x1d8>
  8041a4:	e009883a 	mov	r4,fp
  8041a8:	08059080 	call	805908 <__clzsi2>
  8041ac:	11400544 	addi	r5,r2,21
  8041b0:	29000748 	cmpgei	r4,r5,29
  8041b4:	1007883a 	mov	r3,r2
  8041b8:	10800804 	addi	r2,r2,32
  8041bc:	203e9026 	beq	r4,zero,803c00 <__divdf3+0x220>
  8041c0:	18fffe04 	addi	r3,r3,-8
  8041c4:	e0ec983a 	sll	r22,fp,r3
  8041c8:	0015883a 	mov	r10,zero
  8041cc:	003e9306 	br	803c1c <__divdf3+0x23c>
  8041d0:	b0ffe11e 	bne	r22,r3,804158 <__divdf3+0x778>
  8041d4:	8d7fe036 	bltu	r17,r21,804158 <__divdf3+0x778>
  8041d8:	003fdd06 	br	804150 <__divdf3+0x770>
  8041dc:	30ff132e 	bgeu	r6,r3,803e2c <__divdf3+0x44c>
  8041e0:	39ffff84 	addi	r7,r7,-2
  8041e4:	358d883a 	add	r6,r6,r22
  8041e8:	003f1106 	br	803e30 <__divdf3+0x450>
  8041ec:	243ef72e 	bgeu	r4,r16,803dcc <__divdf3+0x3ec>
  8041f0:	9cffff84 	addi	r19,r19,-2
  8041f4:	2589883a 	add	r4,r4,r22
  8041f8:	003ef506 	br	803dd0 <__divdf3+0x3f0>
  8041fc:	00fff844 	movi	r3,-31
  804200:	1c47c83a 	sub	r3,r3,r17
  804204:	29400820 	cmpeqi	r5,r5,32
  804208:	98c6d83a 	srl	r3,r19,r3
  80420c:	2800031e 	bne	r5,zero,80421c <__divdf3+0x83c>
  804210:	91410f84 	addi	r5,r18,1086
  804214:	994a983a 	sll	r5,r19,r5
  804218:	a168b03a 	or	r20,r20,r5
  80421c:	a028c03a 	cmpne	r20,r20,zero
  804220:	a0e8b03a 	or	r20,r20,r3
  804224:	a4c001cc 	andi	r19,r20,7
  804228:	9800291e 	bne	r19,zero,8042d0 <__divdf3+0x8f0>
  80422c:	000b883a 	mov	r5,zero
  804230:	a028d0fa 	srli	r20,r20,3
  804234:	0007883a 	mov	r3,zero
  804238:	a4e8b03a 	or	r20,r20,r19
  80423c:	003e3a06 	br	803b28 <__divdf3+0x148>
  804240:	1029883a 	mov	r20,r2
  804244:	313f931e 	bne	r6,r4,804094 <__divdf3+0x6b4>
  804248:	1d7f921e 	bne	r3,r21,804094 <__divdf3+0x6b4>
  80424c:	003e7f06 	br	803c4c <__divdf3+0x26c>
  804250:	047f9a0e 	bge	zero,r17,8040bc <__divdf3+0x6dc>
  804254:	0009883a 	mov	r4,zero
  804258:	05000044 	movi	r20,1
  80425c:	9d27883a 	add	r19,r19,r20
  804260:	003e7e06 	br	803c5c <__divdf3+0x27c>
  804264:	a08003cc 	andi	r2,r20,15
  804268:	10800118 	cmpnei	r2,r2,4
  80426c:	103e7a26 	beq	r2,zero,803c58 <__divdf3+0x278>
  804270:	a1000104 	addi	r4,r20,4
  804274:	00bffec4 	movi	r2,-5
  804278:	2008d0fa 	srli	r4,r4,3
  80427c:	1529803a 	cmpltu	r20,r2,r20
  804280:	003ff606 	br	80425c <__divdf3+0x87c>
  804284:	1011883a 	mov	r8,r2
  804288:	003f5a06 	br	803ff4 <__divdf3+0x614>
  80428c:	100f883a 	mov	r7,r2
  804290:	003f3906 	br	803f78 <__divdf3+0x598>
  804294:	89bfb02e 	bgeu	r17,r6,804158 <__divdf3+0x778>
  804298:	8d63883a 	add	r17,r17,r21
  80429c:	8d45803a 	cmpltu	r2,r17,r21
  8042a0:	1585883a 	add	r2,r2,r22
  8042a4:	9cffff84 	addi	r19,r19,-2
  8042a8:	1887883a 	add	r3,r3,r2
  8042ac:	003f0f06 	br	803eec <__divdf3+0x50c>
  8042b0:	ad45883a 	add	r2,r21,r21
  8042b4:	156b803a 	cmpltu	r21,r2,r21
  8042b8:	adad883a 	add	r22,r21,r22
  8042bc:	358d883a 	add	r6,r6,r22
  8042c0:	a53fff84 	addi	r20,r20,-2
  8042c4:	102b883a 	mov	r21,r2
  8042c8:	313fdf26 	beq	r6,r4,804248 <__divdf3+0x868>
  8042cc:	003f7106 	br	804094 <__divdf3+0x6b4>
  8042d0:	a08003cc 	andi	r2,r20,15
  8042d4:	10800118 	cmpnei	r2,r2,4
  8042d8:	000b883a 	mov	r5,zero
  8042dc:	103f8b1e 	bne	r2,zero,80410c <__divdf3+0x72c>
  8042e0:	2804927a 	slli	r2,r5,9
  8042e4:	2826977a 	slli	r19,r5,29
  8042e8:	100ad33a 	srli	r5,r2,12
  8042ec:	003fd006 	br	804230 <__divdf3+0x850>
  8042f0:	00800434 	movhi	r2,16
  8042f4:	99400234 	orhi	r5,r19,8
  8042f8:	10bfffc4 	addi	r2,r2,-1
  8042fc:	288a703a 	and	r5,r5,r2
  804300:	003e7f06 	br	803d00 <__divdf3+0x320>
  804304:	a8ffea36 	bltu	r21,r3,8042b0 <__divdf3+0x8d0>
  804308:	1029883a 	mov	r20,r2
  80430c:	1d7f611e 	bne	r3,r21,804094 <__divdf3+0x6b4>
  804310:	003e4e06 	br	803c4c <__divdf3+0x26c>

00804314 <__eqdf2>:
  804314:	2810d53a 	srli	r8,r5,20
  804318:	3806d53a 	srli	r3,r7,20
  80431c:	00800434 	movhi	r2,16
  804320:	4201ffcc 	andi	r8,r8,2047
  804324:	10bfffc4 	addi	r2,r2,-1
  804328:	4241ffd8 	cmpnei	r9,r8,2047
  80432c:	2814d7fa 	srli	r10,r5,31
  804330:	3816d7fa 	srli	r11,r7,31
  804334:	288a703a 	and	r5,r5,r2
  804338:	388e703a 	and	r7,r7,r2
  80433c:	1881ffcc 	andi	r2,r3,2047
  804340:	48000626 	beq	r9,zero,80435c <__eqdf2+0x48>
  804344:	10c1ffe0 	cmpeqi	r3,r2,2047
  804348:	1800021e 	bne	r3,zero,804354 <__eqdf2+0x40>
  80434c:	4080011e 	bne	r8,r2,804354 <__eqdf2+0x40>
  804350:	29c00826 	beq	r5,r7,804374 <__eqdf2+0x60>
  804354:	00800044 	movi	r2,1
  804358:	f800283a 	ret
  80435c:	2906b03a 	or	r3,r5,r4
  804360:	183ffc1e 	bne	r3,zero,804354 <__eqdf2+0x40>
  804364:	1081ffd8 	cmpnei	r2,r2,2047
  804368:	103ffa1e 	bne	r2,zero,804354 <__eqdf2+0x40>
  80436c:	398eb03a 	or	r7,r7,r6
  804370:	383ff81e 	bne	r7,zero,804354 <__eqdf2+0x40>
  804374:	21bff71e 	bne	r4,r6,804354 <__eqdf2+0x40>
  804378:	52c00426 	beq	r10,r11,80438c <__eqdf2+0x78>
  80437c:	403ff51e 	bne	r8,zero,804354 <__eqdf2+0x40>
  804380:	290ab03a 	or	r5,r5,r4
  804384:	2804c03a 	cmpne	r2,r5,zero
  804388:	f800283a 	ret
  80438c:	0005883a 	mov	r2,zero
  804390:	f800283a 	ret

00804394 <__gedf2>:
  804394:	2810d53a 	srli	r8,r5,20
  804398:	3812d53a 	srli	r9,r7,20
  80439c:	00c00434 	movhi	r3,16
  8043a0:	4201ffcc 	andi	r8,r8,2047
  8043a4:	18ffffc4 	addi	r3,r3,-1
  8043a8:	4281ffd8 	cmpnei	r10,r8,2047
  8043ac:	2816d7fa 	srli	r11,r5,31
  8043b0:	3804d7fa 	srli	r2,r7,31
  8043b4:	28ca703a 	and	r5,r5,r3
  8043b8:	38ce703a 	and	r7,r7,r3
  8043bc:	48c1ffcc 	andi	r3,r9,2047
  8043c0:	50000b26 	beq	r10,zero,8043f0 <__gedf2+0x5c>
  8043c4:	1a41ffd8 	cmpnei	r9,r3,2047
  8043c8:	48000d26 	beq	r9,zero,804400 <__gedf2+0x6c>
  8043cc:	4000191e 	bne	r8,zero,804434 <__gedf2+0xa0>
  8043d0:	2914b03a 	or	r10,r5,r4
  8043d4:	5013003a 	cmpeq	r9,r10,zero
  8043d8:	1800131e 	bne	r3,zero,804428 <__gedf2+0x94>
  8043dc:	3998b03a 	or	r12,r7,r6
  8043e0:	6000111e 	bne	r12,zero,804428 <__gedf2+0x94>
  8043e4:	50000a1e 	bne	r10,zero,804410 <__gedf2+0x7c>
  8043e8:	0005883a 	mov	r2,zero
  8043ec:	f800283a 	ret
  8043f0:	2912b03a 	or	r9,r5,r4
  8043f4:	48001e1e 	bne	r9,zero,804470 <__gedf2+0xdc>
  8043f8:	1a41ffe0 	cmpeqi	r9,r3,2047
  8043fc:	48000d26 	beq	r9,zero,804434 <__gedf2+0xa0>
  804400:	3992b03a 	or	r9,r7,r6
  804404:	48001a1e 	bne	r9,zero,804470 <__gedf2+0xdc>
  804408:	40000526 	beq	r8,zero,804420 <__gedf2+0x8c>
  80440c:	58800d26 	beq	r11,r2,804444 <__gedf2+0xb0>
  804410:	00800044 	movi	r2,1
  804414:	58000626 	beq	r11,zero,804430 <__gedf2+0x9c>
  804418:	00bfffc4 	movi	r2,-1
  80441c:	f800283a 	ret
  804420:	2912b03a 	or	r9,r5,r4
  804424:	4813003a 	cmpeq	r9,r9,zero
  804428:	483ff826 	beq	r9,zero,80440c <__gedf2+0x78>
  80442c:	103ffa26 	beq	r2,zero,804418 <__gedf2+0x84>
  804430:	f800283a 	ret
  804434:	183ff51e 	bne	r3,zero,80440c <__gedf2+0x78>
  804438:	3992b03a 	or	r9,r7,r6
  80443c:	483ff31e 	bne	r9,zero,80440c <__gedf2+0x78>
  804440:	003ff306 	br	804410 <__gedf2+0x7c>
  804444:	1a000716 	blt	r3,r8,804464 <__gedf2+0xd0>
  804448:	40fff816 	blt	r8,r3,80442c <__gedf2+0x98>
  80444c:	397ff036 	bltu	r7,r5,804410 <__gedf2+0x7c>
  804450:	29c00926 	beq	r5,r7,804478 <__gedf2+0xe4>
  804454:	29ffe42e 	bgeu	r5,r7,8043e8 <__gedf2+0x54>
  804458:	583fef26 	beq	r11,zero,804418 <__gedf2+0x84>
  80445c:	5805883a 	mov	r2,r11
  804460:	f800283a 	ret
  804464:	103fec1e 	bne	r2,zero,804418 <__gedf2+0x84>
  804468:	00800044 	movi	r2,1
  80446c:	f800283a 	ret
  804470:	00bfff84 	movi	r2,-2
  804474:	f800283a 	ret
  804478:	313fe536 	bltu	r6,r4,804410 <__gedf2+0x7c>
  80447c:	21bfda2e 	bgeu	r4,r6,8043e8 <__gedf2+0x54>
  804480:	003ff506 	br	804458 <__gedf2+0xc4>

00804484 <__muldf3>:
  804484:	2810d53a 	srli	r8,r5,20
  804488:	defff004 	addi	sp,sp,-64
  80448c:	00800434 	movhi	r2,16
  804490:	df000e15 	stw	fp,56(sp)
  804494:	dd000a15 	stw	r20,40(sp)
  804498:	dcc00915 	stw	r19,36(sp)
  80449c:	dc400715 	stw	r17,28(sp)
  8044a0:	10bfffc4 	addi	r2,r2,-1
  8044a4:	dfc00f15 	stw	ra,60(sp)
  8044a8:	ddc00d15 	stw	r23,52(sp)
  8044ac:	dd800c15 	stw	r22,48(sp)
  8044b0:	dd400b15 	stw	r21,44(sp)
  8044b4:	dc800815 	stw	r18,32(sp)
  8044b8:	dc000615 	stw	r16,24(sp)
  8044bc:	4201ffcc 	andi	r8,r8,2047
  8044c0:	2828d7fa 	srli	r20,r5,31
  8044c4:	2023883a 	mov	r17,r4
  8044c8:	3039883a 	mov	fp,r6
  8044cc:	28a6703a 	and	r19,r5,r2
  8044d0:	40005a26 	beq	r8,zero,80463c <__muldf3+0x1b8>
  8044d4:	4081ffe0 	cmpeqi	r2,r8,2047
  8044d8:	10006c1e 	bne	r2,zero,80468c <__muldf3+0x208>
  8044dc:	980a90fa 	slli	r5,r19,3
  8044e0:	2026d77a 	srli	r19,r4,29
  8044e4:	202490fa 	slli	r18,r4,3
  8044e8:	423f0044 	addi	r8,r8,-1023
  8044ec:	9966b03a 	or	r19,r19,r5
  8044f0:	9cc02034 	orhi	r19,r19,128
  8044f4:	002b883a 	mov	r21,zero
  8044f8:	002d883a 	mov	r22,zero
  8044fc:	3804d53a 	srli	r2,r7,20
  804500:	00c00434 	movhi	r3,16
  804504:	18ffffc4 	addi	r3,r3,-1
  804508:	1081ffcc 	andi	r2,r2,2047
  80450c:	382ed7fa 	srli	r23,r7,31
  804510:	38e0703a 	and	r16,r7,r3
  804514:	10006426 	beq	r2,zero,8046a8 <__muldf3+0x224>
  804518:	10c1ffe0 	cmpeqi	r3,r2,2047
  80451c:	1800211e 	bne	r3,zero,8045a4 <__muldf3+0x120>
  804520:	e008d77a 	srli	r4,fp,29
  804524:	802090fa 	slli	r16,r16,3
  804528:	e02290fa 	slli	r17,fp,3
  80452c:	10bf0044 	addi	r2,r2,-1023
  804530:	2420b03a 	or	r16,r4,r16
  804534:	84002034 	orhi	r16,r16,128
  804538:	4091883a 	add	r8,r8,r2
  80453c:	0009883a 	mov	r4,zero
  804540:	a8800428 	cmpgeui	r2,r21,16
  804544:	a5ccf03a 	xor	r6,r20,r23
  804548:	41c00044 	addi	r7,r8,1
  80454c:	10006d1e 	bne	r2,zero,804704 <__muldf3+0x280>
  804550:	a80490ba 	slli	r2,r21,2
  804554:	00c02034 	movhi	r3,128
  804558:	10c7883a 	add	r3,r2,r3
  80455c:	18915917 	ldw	r2,17764(r3)
  804560:	1000683a 	jmp	r2
  804564:	00804704 	movi	r2,284
  804568:	008045c4 	movi	r2,279
  80456c:	008045c4 	movi	r2,279
  804570:	008045c0 	call	8045c <__alt_mem_sdram-0x77fba4>
  804574:	008045d0 	cmplti	r2,zero,279
  804578:	008045d0 	cmplti	r2,zero,279
  80457c:	00804a80 	call	804a8 <__alt_mem_sdram-0x77fb58>
  804580:	008045c0 	call	8045c <__alt_mem_sdram-0x77fba4>
  804584:	008045d0 	cmplti	r2,zero,279
  804588:	00804a80 	call	804a8 <__alt_mem_sdram-0x77fb58>
  80458c:	008045d0 	cmplti	r2,zero,279
  804590:	008045c0 	call	8045c <__alt_mem_sdram-0x77fba4>
  804594:	00804a30 	cmpltui	r2,zero,296
  804598:	00804a30 	cmpltui	r2,zero,296
  80459c:	00804a30 	cmpltui	r2,zero,296
  8045a0:	00804b0c 	andi	r2,zero,300
  8045a4:	e422b03a 	or	r17,fp,r16
  8045a8:	4201ffc4 	addi	r8,r8,2047
  8045ac:	8801221e 	bne	r17,zero,804a38 <__muldf3+0x5b4>
  8045b0:	ad400094 	ori	r21,r21,2
  8045b4:	0021883a 	mov	r16,zero
  8045b8:	01000084 	movi	r4,2
  8045bc:	003fe006 	br	804540 <__muldf3+0xbc>
  8045c0:	b80d883a 	mov	r6,r23
  8045c4:	8027883a 	mov	r19,r16
  8045c8:	8825883a 	mov	r18,r17
  8045cc:	202d883a 	mov	r22,r4
  8045d0:	b08000a0 	cmpeqi	r2,r22,2
  8045d4:	1000471e 	bne	r2,zero,8046f4 <__muldf3+0x270>
  8045d8:	b08000e0 	cmpeqi	r2,r22,3
  8045dc:	10018e1e 	bne	r2,zero,804c18 <__muldf3+0x794>
  8045e0:	b0800060 	cmpeqi	r2,r22,1
  8045e4:	1000f826 	beq	r2,zero,8049c8 <__muldf3+0x544>
  8045e8:	0007883a 	mov	r3,zero
  8045ec:	0027883a 	mov	r19,zero
  8045f0:	0025883a 	mov	r18,zero
  8045f4:	1806953a 	slli	r3,r3,20
  8045f8:	31803fcc 	andi	r6,r6,255
  8045fc:	300c97fa 	slli	r6,r6,31
  804600:	1cc6b03a 	or	r3,r3,r19
  804604:	9005883a 	mov	r2,r18
  804608:	1986b03a 	or	r3,r3,r6
  80460c:	dfc00f17 	ldw	ra,60(sp)
  804610:	df000e17 	ldw	fp,56(sp)
  804614:	ddc00d17 	ldw	r23,52(sp)
  804618:	dd800c17 	ldw	r22,48(sp)
  80461c:	dd400b17 	ldw	r21,44(sp)
  804620:	dd000a17 	ldw	r20,40(sp)
  804624:	dcc00917 	ldw	r19,36(sp)
  804628:	dc800817 	ldw	r18,32(sp)
  80462c:	dc400717 	ldw	r17,28(sp)
  804630:	dc000617 	ldw	r16,24(sp)
  804634:	dec01004 	addi	sp,sp,64
  804638:	f800283a 	ret
  80463c:	9924b03a 	or	r18,r19,r4
  804640:	90010a26 	beq	r18,zero,804a6c <__muldf3+0x5e8>
  804644:	d9c00015 	stw	r7,0(sp)
  804648:	98014d26 	beq	r19,zero,804b80 <__muldf3+0x6fc>
  80464c:	9809883a 	mov	r4,r19
  804650:	08059080 	call	805908 <__clzsi2>
  804654:	d9c00017 	ldw	r7,0(sp)
  804658:	113ffd44 	addi	r4,r2,-11
  80465c:	00c00744 	movi	r3,29
  804660:	14bffe04 	addi	r18,r2,-8
  804664:	1907c83a 	sub	r3,r3,r4
  804668:	9ca6983a 	sll	r19,r19,r18
  80466c:	88c6d83a 	srl	r3,r17,r3
  804670:	8ca4983a 	sll	r18,r17,r18
  804674:	1ce6b03a 	or	r19,r3,r19
  804678:	023f0344 	movi	r8,-1011
  80467c:	4091c83a 	sub	r8,r8,r2
  804680:	002b883a 	mov	r21,zero
  804684:	002d883a 	mov	r22,zero
  804688:	003f9c06 	br	8044fc <__muldf3+0x78>
  80468c:	9924b03a 	or	r18,r19,r4
  804690:	9000f11e 	bne	r18,zero,804a58 <__muldf3+0x5d4>
  804694:	0027883a 	mov	r19,zero
  804698:	05400204 	movi	r21,8
  80469c:	0201ffc4 	movi	r8,2047
  8046a0:	05800084 	movi	r22,2
  8046a4:	003f9506 	br	8044fc <__muldf3+0x78>
  8046a8:	e422b03a 	or	r17,fp,r16
  8046ac:	8800e626 	beq	r17,zero,804a48 <__muldf3+0x5c4>
  8046b0:	da000015 	stw	r8,0(sp)
  8046b4:	80012626 	beq	r16,zero,804b50 <__muldf3+0x6cc>
  8046b8:	8009883a 	mov	r4,r16
  8046bc:	08059080 	call	805908 <__clzsi2>
  8046c0:	da000017 	ldw	r8,0(sp)
  8046c4:	117ffd44 	addi	r5,r2,-11
  8046c8:	01000744 	movi	r4,29
  8046cc:	147ffe04 	addi	r17,r2,-8
  8046d0:	2149c83a 	sub	r4,r4,r5
  8046d4:	8460983a 	sll	r16,r16,r17
  8046d8:	e108d83a 	srl	r4,fp,r4
  8046dc:	e462983a 	sll	r17,fp,r17
  8046e0:	2420b03a 	or	r16,r4,r16
  8046e4:	4091c83a 	sub	r8,r8,r2
  8046e8:	423f0344 	addi	r8,r8,-1011
  8046ec:	0009883a 	mov	r4,zero
  8046f0:	003f9306 	br	804540 <__muldf3+0xbc>
  8046f4:	00c1ffc4 	movi	r3,2047
  8046f8:	0027883a 	mov	r19,zero
  8046fc:	0025883a 	mov	r18,zero
  804700:	003fbc06 	br	8045f4 <__muldf3+0x170>
  804704:	9028d43a 	srli	r20,r18,16
  804708:	8f3fffcc 	andi	fp,r17,65535
  80470c:	957fffcc 	andi	r21,r18,65535
  804710:	a80b883a 	mov	r5,r21
  804714:	e009883a 	mov	r4,fp
  804718:	d9800315 	stw	r6,12(sp)
  80471c:	da000215 	stw	r8,8(sp)
  804720:	d9c00115 	stw	r7,4(sp)
  804724:	8822d43a 	srli	r17,r17,16
  804728:	080595c0 	call	80595c <__mulsi3>
  80472c:	e00b883a 	mov	r5,fp
  804730:	a009883a 	mov	r4,r20
  804734:	102d883a 	mov	r22,r2
  804738:	080595c0 	call	80595c <__mulsi3>
  80473c:	880b883a 	mov	r5,r17
  804740:	a009883a 	mov	r4,r20
  804744:	102f883a 	mov	r23,r2
  804748:	080595c0 	call	80595c <__mulsi3>
  80474c:	a80b883a 	mov	r5,r21
  804750:	8809883a 	mov	r4,r17
  804754:	d8800015 	stw	r2,0(sp)
  804758:	080595c0 	call	80595c <__mulsi3>
  80475c:	b006d43a 	srli	r3,r22,16
  804760:	15e5883a 	add	r18,r2,r23
  804764:	d9c00117 	ldw	r7,4(sp)
  804768:	1c87883a 	add	r3,r3,r18
  80476c:	da000217 	ldw	r8,8(sp)
  804770:	d9800317 	ldw	r6,12(sp)
  804774:	1dc0042e 	bgeu	r3,r23,804788 <__muldf3+0x304>
  804778:	d9000017 	ldw	r4,0(sp)
  80477c:	00800074 	movhi	r2,1
  804780:	2085883a 	add	r2,r4,r2
  804784:	d8800015 	stw	r2,0(sp)
  804788:	1804943a 	slli	r2,r3,16
  80478c:	85ffffcc 	andi	r23,r16,65535
  804790:	b5bfffcc 	andi	r22,r22,65535
  804794:	1585883a 	add	r2,r2,r22
  804798:	a80b883a 	mov	r5,r21
  80479c:	b809883a 	mov	r4,r23
  8047a0:	1824d43a 	srli	r18,r3,16
  8047a4:	d9800515 	stw	r6,20(sp)
  8047a8:	da000415 	stw	r8,16(sp)
  8047ac:	d9c00315 	stw	r7,12(sp)
  8047b0:	8020d43a 	srli	r16,r16,16
  8047b4:	d8800115 	stw	r2,4(sp)
  8047b8:	080595c0 	call	80595c <__mulsi3>
  8047bc:	a009883a 	mov	r4,r20
  8047c0:	b80b883a 	mov	r5,r23
  8047c4:	d8800215 	stw	r2,8(sp)
  8047c8:	080595c0 	call	80595c <__mulsi3>
  8047cc:	a009883a 	mov	r4,r20
  8047d0:	800b883a 	mov	r5,r16
  8047d4:	102d883a 	mov	r22,r2
  8047d8:	080595c0 	call	80595c <__mulsi3>
  8047dc:	a80b883a 	mov	r5,r21
  8047e0:	8009883a 	mov	r4,r16
  8047e4:	1029883a 	mov	r20,r2
  8047e8:	080595c0 	call	80595c <__mulsi3>
  8047ec:	da800217 	ldw	r10,8(sp)
  8047f0:	1585883a 	add	r2,r2,r22
  8047f4:	d9c00317 	ldw	r7,12(sp)
  8047f8:	5006d43a 	srli	r3,r10,16
  8047fc:	da000417 	ldw	r8,16(sp)
  804800:	d9800517 	ldw	r6,20(sp)
  804804:	1887883a 	add	r3,r3,r2
  804808:	1d80022e 	bgeu	r3,r22,804814 <__muldf3+0x390>
  80480c:	00800074 	movhi	r2,1
  804810:	a0a9883a 	add	r20,r20,r2
  804814:	1804d43a 	srli	r2,r3,16
  804818:	1806943a 	slli	r3,r3,16
  80481c:	982cd43a 	srli	r22,r19,16
  804820:	9d7fffcc 	andi	r21,r19,65535
  804824:	e009883a 	mov	r4,fp
  804828:	54ffffcc 	andi	r19,r10,65535
  80482c:	a80b883a 	mov	r5,r21
  804830:	1ce7883a 	add	r19,r3,r19
  804834:	d9800515 	stw	r6,20(sp)
  804838:	da000415 	stw	r8,16(sp)
  80483c:	d9c00315 	stw	r7,12(sp)
  804840:	1529883a 	add	r20,r2,r20
  804844:	080595c0 	call	80595c <__mulsi3>
  804848:	e00b883a 	mov	r5,fp
  80484c:	b009883a 	mov	r4,r22
  804850:	d8800215 	stw	r2,8(sp)
  804854:	080595c0 	call	80595c <__mulsi3>
  804858:	8809883a 	mov	r4,r17
  80485c:	b00b883a 	mov	r5,r22
  804860:	1039883a 	mov	fp,r2
  804864:	080595c0 	call	80595c <__mulsi3>
  804868:	8809883a 	mov	r4,r17
  80486c:	a80b883a 	mov	r5,r21
  804870:	1023883a 	mov	r17,r2
  804874:	080595c0 	call	80595c <__mulsi3>
  804878:	d8c00217 	ldw	r3,8(sp)
  80487c:	1705883a 	add	r2,r2,fp
  804880:	d9c00317 	ldw	r7,12(sp)
  804884:	1808d43a 	srli	r4,r3,16
  804888:	da000417 	ldw	r8,16(sp)
  80488c:	d9800517 	ldw	r6,20(sp)
  804890:	2089883a 	add	r4,r4,r2
  804894:	94e5883a 	add	r18,r18,r19
  804898:	2700022e 	bgeu	r4,fp,8048a4 <__muldf3+0x420>
  80489c:	00800074 	movhi	r2,1
  8048a0:	88a3883a 	add	r17,r17,r2
  8048a4:	2004d43a 	srli	r2,r4,16
  8048a8:	2038943a 	slli	fp,r4,16
  8048ac:	18ffffcc 	andi	r3,r3,65535
  8048b0:	b809883a 	mov	r4,r23
  8048b4:	a80b883a 	mov	r5,r21
  8048b8:	d9800415 	stw	r6,16(sp)
  8048bc:	da000315 	stw	r8,12(sp)
  8048c0:	d9c00215 	stw	r7,8(sp)
  8048c4:	e0f9883a 	add	fp,fp,r3
  8048c8:	1463883a 	add	r17,r2,r17
  8048cc:	080595c0 	call	80595c <__mulsi3>
  8048d0:	b80b883a 	mov	r5,r23
  8048d4:	b009883a 	mov	r4,r22
  8048d8:	102f883a 	mov	r23,r2
  8048dc:	080595c0 	call	80595c <__mulsi3>
  8048e0:	b00b883a 	mov	r5,r22
  8048e4:	8009883a 	mov	r4,r16
  8048e8:	102d883a 	mov	r22,r2
  8048ec:	080595c0 	call	80595c <__mulsi3>
  8048f0:	a80b883a 	mov	r5,r21
  8048f4:	8009883a 	mov	r4,r16
  8048f8:	1021883a 	mov	r16,r2
  8048fc:	080595c0 	call	80595c <__mulsi3>
  804900:	b80ad43a 	srli	r5,r23,16
  804904:	1585883a 	add	r2,r2,r22
  804908:	d9c00217 	ldw	r7,8(sp)
  80490c:	288b883a 	add	r5,r5,r2
  804910:	da000317 	ldw	r8,12(sp)
  804914:	d9800417 	ldw	r6,16(sp)
  804918:	2d80022e 	bgeu	r5,r22,804924 <__muldf3+0x4a0>
  80491c:	00800074 	movhi	r2,1
  804920:	80a1883a 	add	r16,r16,r2
  804924:	2806943a 	slli	r3,r5,16
  804928:	d8800017 	ldw	r2,0(sp)
  80492c:	bdffffcc 	andi	r23,r23,65535
  804930:	1dc7883a 	add	r3,r3,r23
  804934:	90ab883a 	add	r21,r18,r2
  804938:	acd5803a 	cmpltu	r10,r21,r19
  80493c:	1d07883a 	add	r3,r3,r20
  804940:	af2b883a 	add	r21,r21,fp
  804944:	1a97883a 	add	r11,r3,r10
  804948:	af09803a 	cmpltu	r4,r21,fp
  80494c:	2826d43a 	srli	r19,r5,16
  804950:	5c53883a 	add	r9,r11,r17
  804954:	4905883a 	add	r2,r9,r4
  804958:	1d29803a 	cmpltu	r20,r3,r20
  80495c:	5a95803a 	cmpltu	r10,r11,r10
  804960:	1109803a 	cmpltu	r4,r2,r4
  804964:	a2a8b03a 	or	r20,r20,r10
  804968:	4c63803a 	cmpltu	r17,r9,r17
  80496c:	a4e7883a 	add	r19,r20,r19
  804970:	8908b03a 	or	r4,r17,r4
  804974:	a824927a 	slli	r18,r21,9
  804978:	d8c00117 	ldw	r3,4(sp)
  80497c:	9927883a 	add	r19,r19,r4
  804980:	9c27883a 	add	r19,r19,r16
  804984:	9826927a 	slli	r19,r19,9
  804988:	a82ad5fa 	srli	r21,r21,23
  80498c:	100ad5fa 	srli	r5,r2,23
  804990:	90e4b03a 	or	r18,r18,r3
  804994:	1004927a 	slli	r2,r2,9
  804998:	9024c03a 	cmpne	r18,r18,zero
  80499c:	9564b03a 	or	r18,r18,r21
  8049a0:	98c0402c 	andhi	r3,r19,256
  8049a4:	90a4b03a 	or	r18,r18,r2
  8049a8:	9966b03a 	or	r19,r19,r5
  8049ac:	18007f26 	beq	r3,zero,804bac <__muldf3+0x728>
  8049b0:	9006d07a 	srli	r3,r18,1
  8049b4:	980497fa 	slli	r2,r19,31
  8049b8:	9480004c 	andi	r18,r18,1
  8049bc:	9826d07a 	srli	r19,r19,1
  8049c0:	1c86b03a 	or	r3,r3,r18
  8049c4:	18a4b03a 	or	r18,r3,r2
  8049c8:	3900ffc4 	addi	r4,r7,1023
  8049cc:	0100320e 	bge	zero,r4,804a98 <__muldf3+0x614>
  8049d0:	908001cc 	andi	r2,r18,7
  8049d4:	10000726 	beq	r2,zero,8049f4 <__muldf3+0x570>
  8049d8:	908003cc 	andi	r2,r18,15
  8049dc:	10800120 	cmpeqi	r2,r2,4
  8049e0:	1000041e 	bne	r2,zero,8049f4 <__muldf3+0x570>
  8049e4:	90800104 	addi	r2,r18,4
  8049e8:	14a5803a 	cmpltu	r18,r2,r18
  8049ec:	9ca7883a 	add	r19,r19,r18
  8049f0:	1025883a 	mov	r18,r2
  8049f4:	9880402c 	andhi	r2,r19,256
  8049f8:	10000426 	beq	r2,zero,804a0c <__muldf3+0x588>
  8049fc:	00bfc034 	movhi	r2,65280
  804a00:	10bfffc4 	addi	r2,r2,-1
  804a04:	98a6703a 	and	r19,r19,r2
  804a08:	39010004 	addi	r4,r7,1024
  804a0c:	2081ffc8 	cmpgei	r2,r4,2047
  804a10:	103f381e 	bne	r2,zero,8046f4 <__muldf3+0x270>
  804a14:	9804977a 	slli	r2,r19,29
  804a18:	9024d0fa 	srli	r18,r18,3
  804a1c:	9826927a 	slli	r19,r19,9
  804a20:	20c1ffcc 	andi	r3,r4,2047
  804a24:	14a4b03a 	or	r18,r2,r18
  804a28:	9826d33a 	srli	r19,r19,12
  804a2c:	003ef106 	br	8045f4 <__muldf3+0x170>
  804a30:	a00d883a 	mov	r6,r20
  804a34:	003ee606 	br	8045d0 <__muldf3+0x14c>
  804a38:	ad4000d4 	ori	r21,r21,3
  804a3c:	e023883a 	mov	r17,fp
  804a40:	010000c4 	movi	r4,3
  804a44:	003ebe06 	br	804540 <__muldf3+0xbc>
  804a48:	ad400054 	ori	r21,r21,1
  804a4c:	0021883a 	mov	r16,zero
  804a50:	01000044 	movi	r4,1
  804a54:	003eba06 	br	804540 <__muldf3+0xbc>
  804a58:	2025883a 	mov	r18,r4
  804a5c:	05400304 	movi	r21,12
  804a60:	0201ffc4 	movi	r8,2047
  804a64:	058000c4 	movi	r22,3
  804a68:	003ea406 	br	8044fc <__muldf3+0x78>
  804a6c:	0027883a 	mov	r19,zero
  804a70:	05400104 	movi	r21,4
  804a74:	0011883a 	mov	r8,zero
  804a78:	05800044 	movi	r22,1
  804a7c:	003e9f06 	br	8044fc <__muldf3+0x78>
  804a80:	04c00434 	movhi	r19,16
  804a84:	000d883a 	mov	r6,zero
  804a88:	9cffffc4 	addi	r19,r19,-1
  804a8c:	04bfffc4 	movi	r18,-1
  804a90:	00c1ffc4 	movi	r3,2047
  804a94:	003ed706 	br	8045f4 <__muldf3+0x170>
  804a98:	00800044 	movi	r2,1
  804a9c:	1105c83a 	sub	r2,r2,r4
  804aa0:	10c00e48 	cmpgei	r3,r2,57
  804aa4:	183ed01e 	bne	r3,zero,8045e8 <__muldf3+0x164>
  804aa8:	10c00808 	cmpgei	r3,r2,32
  804aac:	1800411e 	bne	r3,zero,804bb4 <__muldf3+0x730>
  804ab0:	39c10784 	addi	r7,r7,1054
  804ab4:	99c6983a 	sll	r3,r19,r7
  804ab8:	9088d83a 	srl	r4,r18,r2
  804abc:	91ce983a 	sll	r7,r18,r7
  804ac0:	98a6d83a 	srl	r19,r19,r2
  804ac4:	1904b03a 	or	r2,r3,r4
  804ac8:	3824c03a 	cmpne	r18,r7,zero
  804acc:	1484b03a 	or	r2,r2,r18
  804ad0:	10c001cc 	andi	r3,r2,7
  804ad4:	18000726 	beq	r3,zero,804af4 <__muldf3+0x670>
  804ad8:	10c003cc 	andi	r3,r2,15
  804adc:	18c00120 	cmpeqi	r3,r3,4
  804ae0:	1800041e 	bne	r3,zero,804af4 <__muldf3+0x670>
  804ae4:	10c00104 	addi	r3,r2,4
  804ae8:	1885803a 	cmpltu	r2,r3,r2
  804aec:	98a7883a 	add	r19,r19,r2
  804af0:	1805883a 	mov	r2,r3
  804af4:	98c0202c 	andhi	r3,r19,128
  804af8:	18004326 	beq	r3,zero,804c08 <__muldf3+0x784>
  804afc:	00c00044 	movi	r3,1
  804b00:	0027883a 	mov	r19,zero
  804b04:	0025883a 	mov	r18,zero
  804b08:	003eba06 	br	8045f4 <__muldf3+0x170>
  804b0c:	9880022c 	andhi	r2,r19,8
  804b10:	10000926 	beq	r2,zero,804b38 <__muldf3+0x6b4>
  804b14:	8080022c 	andhi	r2,r16,8
  804b18:	1000071e 	bne	r2,zero,804b38 <__muldf3+0x6b4>
  804b1c:	00800434 	movhi	r2,16
  804b20:	84c00234 	orhi	r19,r16,8
  804b24:	10bfffc4 	addi	r2,r2,-1
  804b28:	98a6703a 	and	r19,r19,r2
  804b2c:	b80d883a 	mov	r6,r23
  804b30:	8825883a 	mov	r18,r17
  804b34:	003fd606 	br	804a90 <__muldf3+0x60c>
  804b38:	00800434 	movhi	r2,16
  804b3c:	9cc00234 	orhi	r19,r19,8
  804b40:	10bfffc4 	addi	r2,r2,-1
  804b44:	98a6703a 	and	r19,r19,r2
  804b48:	a00d883a 	mov	r6,r20
  804b4c:	003fd006 	br	804a90 <__muldf3+0x60c>
  804b50:	e009883a 	mov	r4,fp
  804b54:	08059080 	call	805908 <__clzsi2>
  804b58:	11400544 	addi	r5,r2,21
  804b5c:	29000748 	cmpgei	r4,r5,29
  804b60:	1007883a 	mov	r3,r2
  804b64:	da000017 	ldw	r8,0(sp)
  804b68:	10800804 	addi	r2,r2,32
  804b6c:	203ed626 	beq	r4,zero,8046c8 <__muldf3+0x244>
  804b70:	1c3ffe04 	addi	r16,r3,-8
  804b74:	e420983a 	sll	r16,fp,r16
  804b78:	0023883a 	mov	r17,zero
  804b7c:	003ed906 	br	8046e4 <__muldf3+0x260>
  804b80:	08059080 	call	805908 <__clzsi2>
  804b84:	11000544 	addi	r4,r2,21
  804b88:	21400748 	cmpgei	r5,r4,29
  804b8c:	1007883a 	mov	r3,r2
  804b90:	d9c00017 	ldw	r7,0(sp)
  804b94:	10800804 	addi	r2,r2,32
  804b98:	283eb026 	beq	r5,zero,80465c <__muldf3+0x1d8>
  804b9c:	1cfffe04 	addi	r19,r3,-8
  804ba0:	8ce6983a 	sll	r19,r17,r19
  804ba4:	0025883a 	mov	r18,zero
  804ba8:	003eb306 	br	804678 <__muldf3+0x1f4>
  804bac:	400f883a 	mov	r7,r8
  804bb0:	003f8506 	br	8049c8 <__muldf3+0x544>
  804bb4:	00fff844 	movi	r3,-31
  804bb8:	1907c83a 	sub	r3,r3,r4
  804bbc:	10800820 	cmpeqi	r2,r2,32
  804bc0:	98c6d83a 	srl	r3,r19,r3
  804bc4:	1000031e 	bne	r2,zero,804bd4 <__muldf3+0x750>
  804bc8:	39c10f84 	addi	r7,r7,1086
  804bcc:	99e6983a 	sll	r19,r19,r7
  804bd0:	94e4b03a 	or	r18,r18,r19
  804bd4:	9024c03a 	cmpne	r18,r18,zero
  804bd8:	90c4b03a 	or	r2,r18,r3
  804bdc:	148001cc 	andi	r18,r2,7
  804be0:	9000051e 	bne	r18,zero,804bf8 <__muldf3+0x774>
  804be4:	0027883a 	mov	r19,zero
  804be8:	1004d0fa 	srli	r2,r2,3
  804bec:	0007883a 	mov	r3,zero
  804bf0:	14a4b03a 	or	r18,r2,r18
  804bf4:	003e7f06 	br	8045f4 <__muldf3+0x170>
  804bf8:	10c003cc 	andi	r3,r2,15
  804bfc:	18c00118 	cmpnei	r3,r3,4
  804c00:	0027883a 	mov	r19,zero
  804c04:	183fb71e 	bne	r3,zero,804ae4 <__muldf3+0x660>
  804c08:	9806927a 	slli	r3,r19,9
  804c0c:	9824977a 	slli	r18,r19,29
  804c10:	1826d33a 	srli	r19,r3,12
  804c14:	003ff406 	br	804be8 <__muldf3+0x764>
  804c18:	00800434 	movhi	r2,16
  804c1c:	9cc00234 	orhi	r19,r19,8
  804c20:	10bfffc4 	addi	r2,r2,-1
  804c24:	98a6703a 	and	r19,r19,r2
  804c28:	003f9906 	br	804a90 <__muldf3+0x60c>

00804c2c <__subdf3>:
  804c2c:	00c00434 	movhi	r3,16
  804c30:	3812d53a 	srli	r9,r7,20
  804c34:	18ffffc4 	addi	r3,r3,-1
  804c38:	defffb04 	addi	sp,sp,-20
  804c3c:	28d0703a 	and	r8,r5,r3
  804c40:	38c6703a 	and	r3,r7,r3
  804c44:	2804d7fa 	srli	r2,r5,31
  804c48:	401090fa 	slli	r8,r8,3
  804c4c:	280ad53a 	srli	r5,r5,20
  804c50:	180690fa 	slli	r3,r3,3
  804c54:	dcc00315 	stw	r19,12(sp)
  804c58:	dc400115 	stw	r17,4(sp)
  804c5c:	2026d77a 	srli	r19,r4,29
  804c60:	3022d77a 	srli	r17,r6,29
  804c64:	4b41ffcc 	andi	r13,r9,2047
  804c68:	dc800215 	stw	r18,8(sp)
  804c6c:	dc000015 	stw	r16,0(sp)
  804c70:	dfc00415 	stw	ra,16(sp)
  804c74:	6a41ffe0 	cmpeqi	r9,r13,2047
  804c78:	1025883a 	mov	r18,r2
  804c7c:	201690fa 	slli	r11,r4,3
  804c80:	380ed7fa 	srli	r7,r7,31
  804c84:	301490fa 	slli	r10,r6,3
  804c88:	2c01ffcc 	andi	r16,r5,2047
  804c8c:	10803fcc 	andi	r2,r2,255
  804c90:	9a10b03a 	or	r8,r19,r8
  804c94:	88c6b03a 	or	r3,r17,r3
  804c98:	48006e1e 	bne	r9,zero,804e54 <__subdf3+0x228>
  804c9c:	3a40005c 	xori	r9,r7,1
  804ca0:	834bc83a 	sub	r5,r16,r13
  804ca4:	12405726 	beq	r2,r9,804e04 <__subdf3+0x1d8>
  804ca8:	01406f0e 	bge	zero,r5,804e68 <__subdf3+0x23c>
  804cac:	68007a26 	beq	r13,zero,804e98 <__subdf3+0x26c>
  804cb0:	8081ffd8 	cmpnei	r2,r16,2047
  804cb4:	10019f26 	beq	r2,zero,805334 <__subdf3+0x708>
  804cb8:	18c02034 	orhi	r3,r3,128
  804cbc:	28800e48 	cmpgei	r2,r5,57
  804cc0:	1000f91e 	bne	r2,zero,8050a8 <__subdf3+0x47c>
  804cc4:	28800808 	cmpgei	r2,r5,32
  804cc8:	1001451e 	bne	r2,zero,8051e0 <__subdf3+0x5b4>
  804ccc:	00800804 	movi	r2,32
  804cd0:	1145c83a 	sub	r2,r2,r5
  804cd4:	18a2983a 	sll	r17,r3,r2
  804cd8:	5148d83a 	srl	r4,r10,r5
  804cdc:	5084983a 	sll	r2,r10,r2
  804ce0:	1946d83a 	srl	r3,r3,r5
  804ce4:	8922b03a 	or	r17,r17,r4
  804ce8:	1004c03a 	cmpne	r2,r2,zero
  804cec:	88a2b03a 	or	r17,r17,r2
  804cf0:	40d1c83a 	sub	r8,r8,r3
  804cf4:	5c63c83a 	sub	r17,r11,r17
  804cf8:	5c49803a 	cmpltu	r4,r11,r17
  804cfc:	4109c83a 	sub	r4,r8,r4
  804d00:	2080202c 	andhi	r2,r4,128
  804d04:	1000a526 	beq	r2,zero,804f9c <__subdf3+0x370>
  804d08:	04c02034 	movhi	r19,128
  804d0c:	9cffffc4 	addi	r19,r19,-1
  804d10:	24e6703a 	and	r19,r4,r19
  804d14:	9800db26 	beq	r19,zero,805084 <__subdf3+0x458>
  804d18:	9809883a 	mov	r4,r19
  804d1c:	08059080 	call	805908 <__clzsi2>
  804d20:	117ffe04 	addi	r5,r2,-8
  804d24:	01000804 	movi	r4,32
  804d28:	2149c83a 	sub	r4,r4,r5
  804d2c:	8906d83a 	srl	r3,r17,r4
  804d30:	9948983a 	sll	r4,r19,r5
  804d34:	8962983a 	sll	r17,r17,r5
  804d38:	1908b03a 	or	r4,r3,r4
  804d3c:	2c00cc16 	blt	r5,r16,805070 <__subdf3+0x444>
  804d40:	2c0bc83a 	sub	r5,r5,r16
  804d44:	28c00044 	addi	r3,r5,1
  804d48:	18800808 	cmpgei	r2,r3,32
  804d4c:	1001171e 	bne	r2,zero,8051ac <__subdf3+0x580>
  804d50:	00800804 	movi	r2,32
  804d54:	10c5c83a 	sub	r2,r2,r3
  804d58:	88cad83a 	srl	r5,r17,r3
  804d5c:	88a2983a 	sll	r17,r17,r2
  804d60:	2084983a 	sll	r2,r4,r2
  804d64:	20c8d83a 	srl	r4,r4,r3
  804d68:	8822c03a 	cmpne	r17,r17,zero
  804d6c:	1144b03a 	or	r2,r2,r5
  804d70:	1462b03a 	or	r17,r2,r17
  804d74:	0021883a 	mov	r16,zero
  804d78:	888001cc 	andi	r2,r17,7
  804d7c:	10000726 	beq	r2,zero,804d9c <__subdf3+0x170>
  804d80:	888003cc 	andi	r2,r17,15
  804d84:	10800120 	cmpeqi	r2,r2,4
  804d88:	1000041e 	bne	r2,zero,804d9c <__subdf3+0x170>
  804d8c:	88c00104 	addi	r3,r17,4
  804d90:	1c63803a 	cmpltu	r17,r3,r17
  804d94:	2449883a 	add	r4,r4,r17
  804d98:	1823883a 	mov	r17,r3
  804d9c:	2080202c 	andhi	r2,r4,128
  804da0:	10008026 	beq	r2,zero,804fa4 <__subdf3+0x378>
  804da4:	81400044 	addi	r5,r16,1
  804da8:	2881ffe0 	cmpeqi	r2,r5,2047
  804dac:	2941ffcc 	andi	r5,r5,2047
  804db0:	1000921e 	bne	r2,zero,804ffc <__subdf3+0x3d0>
  804db4:	00bfe034 	movhi	r2,65408
  804db8:	10bfffc4 	addi	r2,r2,-1
  804dbc:	2088703a 	and	r4,r4,r2
  804dc0:	2006927a 	slli	r3,r4,9
  804dc4:	8822d0fa 	srli	r17,r17,3
  804dc8:	2004977a 	slli	r2,r4,29
  804dcc:	1806d33a 	srli	r3,r3,12
  804dd0:	1444b03a 	or	r2,r2,r17
  804dd4:	280a953a 	slli	r5,r5,20
  804dd8:	94803fcc 	andi	r18,r18,255
  804ddc:	902497fa 	slli	r18,r18,31
  804de0:	28c6b03a 	or	r3,r5,r3
  804de4:	1c86b03a 	or	r3,r3,r18
  804de8:	dfc00417 	ldw	ra,16(sp)
  804dec:	dcc00317 	ldw	r19,12(sp)
  804df0:	dc800217 	ldw	r18,8(sp)
  804df4:	dc400117 	ldw	r17,4(sp)
  804df8:	dc000017 	ldw	r16,0(sp)
  804dfc:	dec00504 	addi	sp,sp,20
  804e00:	f800283a 	ret
  804e04:	01402e0e 	bge	zero,r5,804ec0 <__subdf3+0x294>
  804e08:	68005526 	beq	r13,zero,804f60 <__subdf3+0x334>
  804e0c:	8081ffd8 	cmpnei	r2,r16,2047
  804e10:	10013b26 	beq	r2,zero,805300 <__subdf3+0x6d4>
  804e14:	18c02034 	orhi	r3,r3,128
  804e18:	28800e48 	cmpgei	r2,r5,57
  804e1c:	10006d1e 	bne	r2,zero,804fd4 <__subdf3+0x3a8>
  804e20:	28800808 	cmpgei	r2,r5,32
  804e24:	10010826 	beq	r2,zero,805248 <__subdf3+0x61c>
  804e28:	2c7ff804 	addi	r17,r5,-32
  804e2c:	29000820 	cmpeqi	r4,r5,32
  804e30:	1c44d83a 	srl	r2,r3,r17
  804e34:	2000041e 	bne	r4,zero,804e48 <__subdf3+0x21c>
  804e38:	01001004 	movi	r4,64
  804e3c:	214bc83a 	sub	r5,r4,r5
  804e40:	1946983a 	sll	r3,r3,r5
  804e44:	50d4b03a 	or	r10,r10,r3
  804e48:	5022c03a 	cmpne	r17,r10,zero
  804e4c:	88a2b03a 	or	r17,r17,r2
  804e50:	00006206 	br	804fdc <__subdf3+0x3b0>
  804e54:	1a98b03a 	or	r12,r3,r10
  804e58:	817e0044 	addi	r5,r16,-2047
  804e5c:	6000161e 	bne	r12,zero,804eb8 <__subdf3+0x28c>
  804e60:	3a40005c 	xori	r9,r7,1
  804e64:	12401626 	beq	r2,r9,804ec0 <__subdf3+0x294>
  804e68:	28002e26 	beq	r5,zero,804f24 <__subdf3+0x2f8>
  804e6c:	6c0bc83a 	sub	r5,r13,r16
  804e70:	4825883a 	mov	r18,r9
  804e74:	80009e1e 	bne	r16,zero,8050f0 <__subdf3+0x4c4>
  804e78:	42c4b03a 	or	r2,r8,r11
  804e7c:	10010926 	beq	r2,zero,8052a4 <__subdf3+0x678>
  804e80:	28bfffc4 	addi	r2,r5,-1
  804e84:	10016826 	beq	r2,zero,805428 <__subdf3+0x7fc>
  804e88:	2941ffd8 	cmpnei	r5,r5,2047
  804e8c:	28015f26 	beq	r5,zero,80540c <__subdf3+0x7e0>
  804e90:	100b883a 	mov	r5,r2
  804e94:	00009906 	br	8050fc <__subdf3+0x4d0>
  804e98:	1a84b03a 	or	r2,r3,r10
  804e9c:	1000b126 	beq	r2,zero,805164 <__subdf3+0x538>
  804ea0:	28bfffc4 	addi	r2,r5,-1
  804ea4:	10011d26 	beq	r2,zero,80531c <__subdf3+0x6f0>
  804ea8:	2941ffd8 	cmpnei	r5,r5,2047
  804eac:	28011426 	beq	r5,zero,805300 <__subdf3+0x6d4>
  804eb0:	100b883a 	mov	r5,r2
  804eb4:	003f8106 	br	804cbc <__subdf3+0x90>
  804eb8:	3a403fcc 	andi	r9,r7,255
  804ebc:	11ffea1e 	bne	r2,r7,804e68 <__subdf3+0x23c>
  804ec0:	28007c26 	beq	r5,zero,8050b4 <__subdf3+0x488>
  804ec4:	6c0bc83a 	sub	r5,r13,r16
  804ec8:	8000d726 	beq	r16,zero,805228 <__subdf3+0x5fc>
  804ecc:	6881ffd8 	cmpnei	r2,r13,2047
  804ed0:	10012626 	beq	r2,zero,80536c <__subdf3+0x740>
  804ed4:	42002034 	orhi	r8,r8,128
  804ed8:	28800e48 	cmpgei	r2,r5,57
  804edc:	10012a1e 	bne	r2,zero,805388 <__subdf3+0x75c>
  804ee0:	28800808 	cmpgei	r2,r5,32
  804ee4:	1001821e 	bne	r2,zero,8054f0 <__subdf3+0x8c4>
  804ee8:	00800804 	movi	r2,32
  804eec:	1145c83a 	sub	r2,r2,r5
  804ef0:	40a2983a 	sll	r17,r8,r2
  804ef4:	5948d83a 	srl	r4,r11,r5
  804ef8:	5884983a 	sll	r2,r11,r2
  804efc:	4150d83a 	srl	r8,r8,r5
  804f00:	8922b03a 	or	r17,r17,r4
  804f04:	1004c03a 	cmpne	r2,r2,zero
  804f08:	88a2b03a 	or	r17,r17,r2
  804f0c:	1a07883a 	add	r3,r3,r8
  804f10:	8aa3883a 	add	r17,r17,r10
  804f14:	8a89803a 	cmpltu	r4,r17,r10
  804f18:	20c9883a 	add	r4,r4,r3
  804f1c:	6821883a 	mov	r16,r13
  804f20:	00003106 	br	804fe8 <__subdf3+0x3bc>
  804f24:	80800044 	addi	r2,r16,1
  804f28:	1081ff8c 	andi	r2,r2,2046
  804f2c:	1000821e 	bne	r2,zero,805138 <__subdf3+0x50c>
  804f30:	42ceb03a 	or	r7,r8,r11
  804f34:	1a84b03a 	or	r2,r3,r10
  804f38:	8000e11e 	bne	r16,zero,8052c0 <__subdf3+0x694>
  804f3c:	38012a26 	beq	r7,zero,8053e8 <__subdf3+0x7bc>
  804f40:	1001461e 	bne	r2,zero,80545c <__subdf3+0x830>
  804f44:	4004977a 	slli	r2,r8,29
  804f48:	00c80034 	movhi	r3,8192
  804f4c:	18ffffc4 	addi	r3,r3,-1
  804f50:	20c8703a 	and	r4,r4,r3
  804f54:	4010d0fa 	srli	r8,r8,3
  804f58:	1104b03a 	or	r2,r2,r4
  804f5c:	00001806 	br	804fc0 <__subdf3+0x394>
  804f60:	1a84b03a 	or	r2,r3,r10
  804f64:	1000fa26 	beq	r2,zero,805350 <__subdf3+0x724>
  804f68:	28bfffc4 	addi	r2,r5,-1
  804f6c:	10000426 	beq	r2,zero,804f80 <__subdf3+0x354>
  804f70:	2941ffd8 	cmpnei	r5,r5,2047
  804f74:	28013226 	beq	r5,zero,805440 <__subdf3+0x814>
  804f78:	100b883a 	mov	r5,r2
  804f7c:	003fa606 	br	804e18 <__subdf3+0x1ec>
  804f80:	5aa3883a 	add	r17,r11,r10
  804f84:	40c9883a 	add	r4,r8,r3
  804f88:	8ad7803a 	cmpltu	r11,r17,r11
  804f8c:	22c9883a 	add	r4,r4,r11
  804f90:	2080202c 	andhi	r2,r4,128
  804f94:	10007a1e 	bne	r2,zero,805180 <__subdf3+0x554>
  804f98:	04000044 	movi	r16,1
  804f9c:	888001cc 	andi	r2,r17,7
  804fa0:	103f771e 	bne	r2,zero,804d80 <__subdf3+0x154>
  804fa4:	8822d0fa 	srli	r17,r17,3
  804fa8:	2004977a 	slli	r2,r4,29
  804fac:	2010d0fa 	srli	r8,r4,3
  804fb0:	800b883a 	mov	r5,r16
  804fb4:	8884b03a 	or	r2,r17,r2
  804fb8:	28c1ffe0 	cmpeqi	r3,r5,2047
  804fbc:	1800241e 	bne	r3,zero,805050 <__subdf3+0x424>
  804fc0:	00c00434 	movhi	r3,16
  804fc4:	18ffffc4 	addi	r3,r3,-1
  804fc8:	40c6703a 	and	r3,r8,r3
  804fcc:	2941ffcc 	andi	r5,r5,2047
  804fd0:	003f8006 	br	804dd4 <__subdf3+0x1a8>
  804fd4:	1aa2b03a 	or	r17,r3,r10
  804fd8:	8822c03a 	cmpne	r17,r17,zero
  804fdc:	8ae3883a 	add	r17,r17,r11
  804fe0:	8ac9803a 	cmpltu	r4,r17,r11
  804fe4:	2209883a 	add	r4,r4,r8
  804fe8:	2080202c 	andhi	r2,r4,128
  804fec:	103feb26 	beq	r2,zero,804f9c <__subdf3+0x370>
  804ff0:	84000044 	addi	r16,r16,1
  804ff4:	8081ffe0 	cmpeqi	r2,r16,2047
  804ff8:	10006226 	beq	r2,zero,805184 <__subdf3+0x558>
  804ffc:	0141ffc4 	movi	r5,2047
  805000:	0007883a 	mov	r3,zero
  805004:	0005883a 	mov	r2,zero
  805008:	003f7206 	br	804dd4 <__subdf3+0x1a8>
  80500c:	400e977a 	slli	r7,r8,29
  805010:	4010d0fa 	srli	r8,r8,3
  805014:	1000ef26 	beq	r2,zero,8053d4 <__subdf3+0x7a8>
  805018:	01480034 	movhi	r5,8192
  80501c:	297fffc4 	addi	r5,r5,-1
  805020:	2144703a 	and	r2,r4,r5
  805024:	4100022c 	andhi	r4,r8,8
  805028:	11c4b03a 	or	r2,r2,r7
  80502c:	20000826 	beq	r4,zero,805050 <__subdf3+0x424>
  805030:	1808d0fa 	srli	r4,r3,3
  805034:	21c0022c 	andhi	r7,r4,8
  805038:	3800051e 	bne	r7,zero,805050 <__subdf3+0x424>
  80503c:	1804977a 	slli	r2,r3,29
  805040:	314c703a 	and	r6,r6,r5
  805044:	4825883a 	mov	r18,r9
  805048:	3084b03a 	or	r2,r6,r2
  80504c:	2011883a 	mov	r8,r4
  805050:	1206b03a 	or	r3,r2,r8
  805054:	18013e26 	beq	r3,zero,805550 <__subdf3+0x924>
  805058:	01000434 	movhi	r4,16
  80505c:	40c00234 	orhi	r3,r8,8
  805060:	213fffc4 	addi	r4,r4,-1
  805064:	1906703a 	and	r3,r3,r4
  805068:	0141ffc4 	movi	r5,2047
  80506c:	003f5906 	br	804dd4 <__subdf3+0x1a8>
  805070:	00ffe034 	movhi	r3,65408
  805074:	18ffffc4 	addi	r3,r3,-1
  805078:	8161c83a 	sub	r16,r16,r5
  80507c:	20c8703a 	and	r4,r4,r3
  805080:	003f3d06 	br	804d78 <__subdf3+0x14c>
  805084:	8809883a 	mov	r4,r17
  805088:	08059080 	call	805908 <__clzsi2>
  80508c:	11400604 	addi	r5,r2,24
  805090:	28c00808 	cmpgei	r3,r5,32
  805094:	183f2326 	beq	r3,zero,804d24 <__subdf3+0xf8>
  805098:	113ffe04 	addi	r4,r2,-8
  80509c:	8908983a 	sll	r4,r17,r4
  8050a0:	0023883a 	mov	r17,zero
  8050a4:	003f2506 	br	804d3c <__subdf3+0x110>
  8050a8:	1aa2b03a 	or	r17,r3,r10
  8050ac:	8822c03a 	cmpne	r17,r17,zero
  8050b0:	003f1006 	br	804cf4 <__subdf3+0xc8>
  8050b4:	80800044 	addi	r2,r16,1
  8050b8:	11c1ff8c 	andi	r7,r2,2046
  8050bc:	38006d1e 	bne	r7,zero,805274 <__subdf3+0x648>
  8050c0:	42c4b03a 	or	r2,r8,r11
  8050c4:	8000be1e 	bne	r16,zero,8053c0 <__subdf3+0x794>
  8050c8:	1000f726 	beq	r2,zero,8054a8 <__subdf3+0x87c>
  8050cc:	1a84b03a 	or	r2,r3,r10
  8050d0:	1000fc1e 	bne	r2,zero,8054c4 <__subdf3+0x898>
  8050d4:	4006977a 	slli	r3,r8,29
  8050d8:	00880034 	movhi	r2,8192
  8050dc:	10bfffc4 	addi	r2,r2,-1
  8050e0:	2084703a 	and	r2,r4,r2
  8050e4:	4010d0fa 	srli	r8,r8,3
  8050e8:	10c4b03a 	or	r2,r2,r3
  8050ec:	003fb406 	br	804fc0 <__subdf3+0x394>
  8050f0:	6881ffd8 	cmpnei	r2,r13,2047
  8050f4:	10009d26 	beq	r2,zero,80536c <__subdf3+0x740>
  8050f8:	42002034 	orhi	r8,r8,128
  8050fc:	28800e48 	cmpgei	r2,r5,57
  805100:	1000421e 	bne	r2,zero,80520c <__subdf3+0x5e0>
  805104:	28800808 	cmpgei	r2,r5,32
  805108:	1000a21e 	bne	r2,zero,805394 <__subdf3+0x768>
  80510c:	00800804 	movi	r2,32
  805110:	1145c83a 	sub	r2,r2,r5
  805114:	40a2983a 	sll	r17,r8,r2
  805118:	5948d83a 	srl	r4,r11,r5
  80511c:	5896983a 	sll	r11,r11,r2
  805120:	4150d83a 	srl	r8,r8,r5
  805124:	8922b03a 	or	r17,r17,r4
  805128:	5816c03a 	cmpne	r11,r11,zero
  80512c:	8ae2b03a 	or	r17,r17,r11
  805130:	1a07c83a 	sub	r3,r3,r8
  805134:	00003706 	br	805214 <__subdf3+0x5e8>
  805138:	5aa3c83a 	sub	r17,r11,r10
  80513c:	40e7c83a 	sub	r19,r8,r3
  805140:	5c49803a 	cmpltu	r4,r11,r17
  805144:	9927c83a 	sub	r19,r19,r4
  805148:	9880202c 	andhi	r2,r19,128
  80514c:	1000661e 	bne	r2,zero,8052e8 <__subdf3+0x6bc>
  805150:	8cc4b03a 	or	r2,r17,r19
  805154:	103eef1e 	bne	r2,zero,804d14 <__subdf3+0xe8>
  805158:	0011883a 	mov	r8,zero
  80515c:	0025883a 	mov	r18,zero
  805160:	003f9706 	br	804fc0 <__subdf3+0x394>
  805164:	4022977a 	slli	r17,r8,29
  805168:	00880034 	movhi	r2,8192
  80516c:	10bfffc4 	addi	r2,r2,-1
  805170:	2088703a 	and	r4,r4,r2
  805174:	4010d0fa 	srli	r8,r8,3
  805178:	2444b03a 	or	r2,r4,r17
  80517c:	003f8e06 	br	804fb8 <__subdf3+0x38c>
  805180:	04000084 	movi	r16,2
  805184:	00bfe034 	movhi	r2,65408
  805188:	10bfffc4 	addi	r2,r2,-1
  80518c:	8806d07a 	srli	r3,r17,1
  805190:	2088703a 	and	r4,r4,r2
  805194:	200497fa 	slli	r2,r4,31
  805198:	8c40004c 	andi	r17,r17,1
  80519c:	1c62b03a 	or	r17,r3,r17
  8051a0:	2008d07a 	srli	r4,r4,1
  8051a4:	1462b03a 	or	r17,r2,r17
  8051a8:	003ef306 	br	804d78 <__subdf3+0x14c>
  8051ac:	297ff844 	addi	r5,r5,-31
  8051b0:	18800820 	cmpeqi	r2,r3,32
  8051b4:	214ad83a 	srl	r5,r4,r5
  8051b8:	1000041e 	bne	r2,zero,8051cc <__subdf3+0x5a0>
  8051bc:	00801004 	movi	r2,64
  8051c0:	10c7c83a 	sub	r3,r2,r3
  8051c4:	20c8983a 	sll	r4,r4,r3
  8051c8:	8922b03a 	or	r17,r17,r4
  8051cc:	8822c03a 	cmpne	r17,r17,zero
  8051d0:	8962b03a 	or	r17,r17,r5
  8051d4:	0009883a 	mov	r4,zero
  8051d8:	0021883a 	mov	r16,zero
  8051dc:	003f6f06 	br	804f9c <__subdf3+0x370>
  8051e0:	2c7ff804 	addi	r17,r5,-32
  8051e4:	29000820 	cmpeqi	r4,r5,32
  8051e8:	1c44d83a 	srl	r2,r3,r17
  8051ec:	2000041e 	bne	r4,zero,805200 <__subdf3+0x5d4>
  8051f0:	01001004 	movi	r4,64
  8051f4:	214bc83a 	sub	r5,r4,r5
  8051f8:	1946983a 	sll	r3,r3,r5
  8051fc:	50d4b03a 	or	r10,r10,r3
  805200:	5022c03a 	cmpne	r17,r10,zero
  805204:	88a2b03a 	or	r17,r17,r2
  805208:	003eba06 	br	804cf4 <__subdf3+0xc8>
  80520c:	42d0b03a 	or	r8,r8,r11
  805210:	4022c03a 	cmpne	r17,r8,zero
  805214:	5463c83a 	sub	r17,r10,r17
  805218:	5449803a 	cmpltu	r4,r10,r17
  80521c:	1909c83a 	sub	r4,r3,r4
  805220:	6821883a 	mov	r16,r13
  805224:	003eb606 	br	804d00 <__subdf3+0xd4>
  805228:	42c4b03a 	or	r2,r8,r11
  80522c:	10009726 	beq	r2,zero,80548c <__subdf3+0x860>
  805230:	28bfffc4 	addi	r2,r5,-1
  805234:	1000b926 	beq	r2,zero,80551c <__subdf3+0x8f0>
  805238:	2941ffd8 	cmpnei	r5,r5,2047
  80523c:	28007326 	beq	r5,zero,80540c <__subdf3+0x7e0>
  805240:	100b883a 	mov	r5,r2
  805244:	003f2406 	br	804ed8 <__subdf3+0x2ac>
  805248:	00800804 	movi	r2,32
  80524c:	1145c83a 	sub	r2,r2,r5
  805250:	18a2983a 	sll	r17,r3,r2
  805254:	5148d83a 	srl	r4,r10,r5
  805258:	5084983a 	sll	r2,r10,r2
  80525c:	1946d83a 	srl	r3,r3,r5
  805260:	8922b03a 	or	r17,r17,r4
  805264:	1004c03a 	cmpne	r2,r2,zero
  805268:	88a2b03a 	or	r17,r17,r2
  80526c:	40d1883a 	add	r8,r8,r3
  805270:	003f5a06 	br	804fdc <__subdf3+0x3b0>
  805274:	1101ffe0 	cmpeqi	r4,r2,2047
  805278:	203f601e 	bne	r4,zero,804ffc <__subdf3+0x3d0>
  80527c:	5a95883a 	add	r10,r11,r10
  805280:	52d7803a 	cmpltu	r11,r10,r11
  805284:	40c9883a 	add	r4,r8,r3
  805288:	22c9883a 	add	r4,r4,r11
  80528c:	202297fa 	slli	r17,r4,31
  805290:	5014d07a 	srli	r10,r10,1
  805294:	2008d07a 	srli	r4,r4,1
  805298:	1021883a 	mov	r16,r2
  80529c:	8aa2b03a 	or	r17,r17,r10
  8052a0:	003f3e06 	br	804f9c <__subdf3+0x370>
  8052a4:	1808977a 	slli	r4,r3,29
  8052a8:	00880034 	movhi	r2,8192
  8052ac:	10bfffc4 	addi	r2,r2,-1
  8052b0:	308c703a 	and	r6,r6,r2
  8052b4:	1810d0fa 	srli	r8,r3,3
  8052b8:	3104b03a 	or	r2,r6,r4
  8052bc:	003f3e06 	br	804fb8 <__subdf3+0x38c>
  8052c0:	383f521e 	bne	r7,zero,80500c <__subdf3+0x3e0>
  8052c4:	10009d26 	beq	r2,zero,80553c <__subdf3+0x910>
  8052c8:	1808977a 	slli	r4,r3,29
  8052cc:	00880034 	movhi	r2,8192
  8052d0:	10bfffc4 	addi	r2,r2,-1
  8052d4:	3084703a 	and	r2,r6,r2
  8052d8:	1810d0fa 	srli	r8,r3,3
  8052dc:	1104b03a 	or	r2,r2,r4
  8052e0:	4825883a 	mov	r18,r9
  8052e4:	003f5a06 	br	805050 <__subdf3+0x424>
  8052e8:	52e3c83a 	sub	r17,r10,r11
  8052ec:	1a09c83a 	sub	r4,r3,r8
  8052f0:	5467803a 	cmpltu	r19,r10,r17
  8052f4:	24e7c83a 	sub	r19,r4,r19
  8052f8:	4825883a 	mov	r18,r9
  8052fc:	003e8506 	br	804d14 <__subdf3+0xe8>
  805300:	4022977a 	slli	r17,r8,29
  805304:	00880034 	movhi	r2,8192
  805308:	10bfffc4 	addi	r2,r2,-1
  80530c:	2088703a 	and	r4,r4,r2
  805310:	4010d0fa 	srli	r8,r8,3
  805314:	2444b03a 	or	r2,r4,r17
  805318:	003f4d06 	br	805050 <__subdf3+0x424>
  80531c:	5aa3c83a 	sub	r17,r11,r10
  805320:	40c9c83a 	sub	r4,r8,r3
  805324:	5c57803a 	cmpltu	r11,r11,r17
  805328:	22c9c83a 	sub	r4,r4,r11
  80532c:	04000044 	movi	r16,1
  805330:	003e7306 	br	804d00 <__subdf3+0xd4>
  805334:	4004977a 	slli	r2,r8,29
  805338:	00c80034 	movhi	r3,8192
  80533c:	18ffffc4 	addi	r3,r3,-1
  805340:	20c8703a 	and	r4,r4,r3
  805344:	4010d0fa 	srli	r8,r8,3
  805348:	1104b03a 	or	r2,r2,r4
  80534c:	003f4006 	br	805050 <__subdf3+0x424>
  805350:	4004977a 	slli	r2,r8,29
  805354:	00c80034 	movhi	r3,8192
  805358:	18ffffc4 	addi	r3,r3,-1
  80535c:	20c8703a 	and	r4,r4,r3
  805360:	4010d0fa 	srli	r8,r8,3
  805364:	1104b03a 	or	r2,r2,r4
  805368:	003f1306 	br	804fb8 <__subdf3+0x38c>
  80536c:	1804977a 	slli	r2,r3,29
  805370:	01080034 	movhi	r4,8192
  805374:	213fffc4 	addi	r4,r4,-1
  805378:	310c703a 	and	r6,r6,r4
  80537c:	1810d0fa 	srli	r8,r3,3
  805380:	1184b03a 	or	r2,r2,r6
  805384:	003f3206 	br	805050 <__subdf3+0x424>
  805388:	42d0b03a 	or	r8,r8,r11
  80538c:	4022c03a 	cmpne	r17,r8,zero
  805390:	003edf06 	br	804f10 <__subdf3+0x2e4>
  805394:	2c7ff804 	addi	r17,r5,-32
  805398:	29000820 	cmpeqi	r4,r5,32
  80539c:	4444d83a 	srl	r2,r8,r17
  8053a0:	2000041e 	bne	r4,zero,8053b4 <__subdf3+0x788>
  8053a4:	01001004 	movi	r4,64
  8053a8:	214bc83a 	sub	r5,r4,r5
  8053ac:	4150983a 	sll	r8,r8,r5
  8053b0:	5a16b03a 	or	r11,r11,r8
  8053b4:	5822c03a 	cmpne	r17,r11,zero
  8053b8:	88a2b03a 	or	r17,r17,r2
  8053bc:	003f9506 	br	805214 <__subdf3+0x5e8>
  8053c0:	103fea26 	beq	r2,zero,80536c <__subdf3+0x740>
  8053c4:	1a94b03a 	or	r10,r3,r10
  8053c8:	400e977a 	slli	r7,r8,29
  8053cc:	4010d0fa 	srli	r8,r8,3
  8053d0:	503f111e 	bne	r10,zero,805018 <__subdf3+0x3ec>
  8053d4:	00880034 	movhi	r2,8192
  8053d8:	10bfffc4 	addi	r2,r2,-1
  8053dc:	2084703a 	and	r2,r4,r2
  8053e0:	11c4b03a 	or	r2,r2,r7
  8053e4:	003f1a06 	br	805050 <__subdf3+0x424>
  8053e8:	103f5b26 	beq	r2,zero,805158 <__subdf3+0x52c>
  8053ec:	1804977a 	slli	r2,r3,29
  8053f0:	01080034 	movhi	r4,8192
  8053f4:	213fffc4 	addi	r4,r4,-1
  8053f8:	310c703a 	and	r6,r6,r4
  8053fc:	1810d0fa 	srli	r8,r3,3
  805400:	1184b03a 	or	r2,r2,r6
  805404:	4825883a 	mov	r18,r9
  805408:	003eed06 	br	804fc0 <__subdf3+0x394>
  80540c:	1808977a 	slli	r4,r3,29
  805410:	00880034 	movhi	r2,8192
  805414:	10bfffc4 	addi	r2,r2,-1
  805418:	3084703a 	and	r2,r6,r2
  80541c:	1810d0fa 	srli	r8,r3,3
  805420:	1104b03a 	or	r2,r2,r4
  805424:	003f0a06 	br	805050 <__subdf3+0x424>
  805428:	52e3c83a 	sub	r17,r10,r11
  80542c:	1a09c83a 	sub	r4,r3,r8
  805430:	5455803a 	cmpltu	r10,r10,r17
  805434:	2289c83a 	sub	r4,r4,r10
  805438:	04000044 	movi	r16,1
  80543c:	003e3006 	br	804d00 <__subdf3+0xd4>
  805440:	4006977a 	slli	r3,r8,29
  805444:	00880034 	movhi	r2,8192
  805448:	10bfffc4 	addi	r2,r2,-1
  80544c:	2084703a 	and	r2,r4,r2
  805450:	4010d0fa 	srli	r8,r8,3
  805454:	10c4b03a 	or	r2,r2,r3
  805458:	003efd06 	br	805050 <__subdf3+0x424>
  80545c:	5aa3c83a 	sub	r17,r11,r10
  805460:	5c45803a 	cmpltu	r2,r11,r17
  805464:	40c9c83a 	sub	r4,r8,r3
  805468:	2089c83a 	sub	r4,r4,r2
  80546c:	2080202c 	andhi	r2,r4,128
  805470:	10002f26 	beq	r2,zero,805530 <__subdf3+0x904>
  805474:	52e3c83a 	sub	r17,r10,r11
  805478:	1a09c83a 	sub	r4,r3,r8
  80547c:	5455803a 	cmpltu	r10,r10,r17
  805480:	2289c83a 	sub	r4,r4,r10
  805484:	4825883a 	mov	r18,r9
  805488:	003e3b06 	br	804d78 <__subdf3+0x14c>
  80548c:	1808977a 	slli	r4,r3,29
  805490:	00880034 	movhi	r2,8192
  805494:	10bfffc4 	addi	r2,r2,-1
  805498:	3084703a 	and	r2,r6,r2
  80549c:	1810d0fa 	srli	r8,r3,3
  8054a0:	1104b03a 	or	r2,r2,r4
  8054a4:	003ec406 	br	804fb8 <__subdf3+0x38c>
  8054a8:	1808977a 	slli	r4,r3,29
  8054ac:	00880034 	movhi	r2,8192
  8054b0:	10bfffc4 	addi	r2,r2,-1
  8054b4:	3084703a 	and	r2,r6,r2
  8054b8:	1810d0fa 	srli	r8,r3,3
  8054bc:	1104b03a 	or	r2,r2,r4
  8054c0:	003ebf06 	br	804fc0 <__subdf3+0x394>
  8054c4:	5aa3883a 	add	r17,r11,r10
  8054c8:	40c9883a 	add	r4,r8,r3
  8054cc:	8ad7803a 	cmpltu	r11,r17,r11
  8054d0:	22c9883a 	add	r4,r4,r11
  8054d4:	2080202c 	andhi	r2,r4,128
  8054d8:	103eb026 	beq	r2,zero,804f9c <__subdf3+0x370>
  8054dc:	00bfe034 	movhi	r2,65408
  8054e0:	10bfffc4 	addi	r2,r2,-1
  8054e4:	2088703a 	and	r4,r4,r2
  8054e8:	04000044 	movi	r16,1
  8054ec:	003eab06 	br	804f9c <__subdf3+0x370>
  8054f0:	28bff804 	addi	r2,r5,-32
  8054f4:	29000820 	cmpeqi	r4,r5,32
  8054f8:	4084d83a 	srl	r2,r8,r2
  8054fc:	2000041e 	bne	r4,zero,805510 <__subdf3+0x8e4>
  805500:	01001004 	movi	r4,64
  805504:	214bc83a 	sub	r5,r4,r5
  805508:	4150983a 	sll	r8,r8,r5
  80550c:	5a16b03a 	or	r11,r11,r8
  805510:	5822c03a 	cmpne	r17,r11,zero
  805514:	88a2b03a 	or	r17,r17,r2
  805518:	003e7d06 	br	804f10 <__subdf3+0x2e4>
  80551c:	5aa3883a 	add	r17,r11,r10
  805520:	40c9883a 	add	r4,r8,r3
  805524:	8a95803a 	cmpltu	r10,r17,r10
  805528:	2289883a 	add	r4,r4,r10
  80552c:	003e9806 	br	804f90 <__subdf3+0x364>
  805530:	8904b03a 	or	r2,r17,r4
  805534:	103f0826 	beq	r2,zero,805158 <__subdf3+0x52c>
  805538:	003e9806 	br	804f9c <__subdf3+0x370>
  80553c:	02000434 	movhi	r8,16
  805540:	423fffc4 	addi	r8,r8,-1
  805544:	0025883a 	mov	r18,zero
  805548:	00bfffc4 	movi	r2,-1
  80554c:	003ec206 	br	805058 <__subdf3+0x42c>
  805550:	0005883a 	mov	r2,zero
  805554:	0141ffc4 	movi	r5,2047
  805558:	0007883a 	mov	r3,zero
  80555c:	003e1d06 	br	804dd4 <__subdf3+0x1a8>

00805560 <__fixdfsi>:
  805560:	2806d53a 	srli	r3,r5,20
  805564:	01800434 	movhi	r6,16
  805568:	31bfffc4 	addi	r6,r6,-1
  80556c:	18c1ffcc 	andi	r3,r3,2047
  805570:	19c0ffd0 	cmplti	r7,r3,1023
  805574:	2810d7fa 	srli	r8,r5,31
  805578:	298a703a 	and	r5,r5,r6
  80557c:	3800061e 	bne	r7,zero,805598 <__fixdfsi+0x38>
  805580:	18810790 	cmplti	r2,r3,1054
  805584:	1000061e 	bne	r2,zero,8055a0 <__fixdfsi+0x40>
  805588:	00a00034 	movhi	r2,32768
  80558c:	10bfffc4 	addi	r2,r2,-1
  805590:	4085883a 	add	r2,r8,r2
  805594:	f800283a 	ret
  805598:	0005883a 	mov	r2,zero
  80559c:	f800283a 	ret
  8055a0:	01810cc4 	movi	r6,1075
  8055a4:	30cdc83a 	sub	r6,r6,r3
  8055a8:	30800808 	cmpgei	r2,r6,32
  8055ac:	29400434 	orhi	r5,r5,16
  8055b0:	1000071e 	bne	r2,zero,8055d0 <__fixdfsi+0x70>
  8055b4:	18befb44 	addi	r2,r3,-1043
  8055b8:	2884983a 	sll	r2,r5,r2
  8055bc:	2188d83a 	srl	r4,r4,r6
  8055c0:	1104b03a 	or	r2,r2,r4
  8055c4:	403ff526 	beq	r8,zero,80559c <__fixdfsi+0x3c>
  8055c8:	0085c83a 	sub	r2,zero,r2
  8055cc:	f800283a 	ret
  8055d0:	008104c4 	movi	r2,1043
  8055d4:	10c5c83a 	sub	r2,r2,r3
  8055d8:	2884d83a 	srl	r2,r5,r2
  8055dc:	003ff906 	br	8055c4 <__fixdfsi+0x64>

008055e0 <__floatsidf>:
  8055e0:	defffd04 	addi	sp,sp,-12
  8055e4:	dfc00215 	stw	ra,8(sp)
  8055e8:	dc400115 	stw	r17,4(sp)
  8055ec:	dc000015 	stw	r16,0(sp)
  8055f0:	20001326 	beq	r4,zero,805640 <__floatsidf+0x60>
  8055f4:	2022d7fa 	srli	r17,r4,31
  8055f8:	2021883a 	mov	r16,r4
  8055fc:	20002516 	blt	r4,zero,805694 <__floatsidf+0xb4>
  805600:	8009883a 	mov	r4,r16
  805604:	08059080 	call	805908 <__clzsi2>
  805608:	01410784 	movi	r5,1054
  80560c:	288bc83a 	sub	r5,r5,r2
  805610:	10c002c8 	cmpgei	r3,r2,11
  805614:	2941ffcc 	andi	r5,r5,2047
  805618:	1800171e 	bne	r3,zero,805678 <__floatsidf+0x98>
  80561c:	00c002c4 	movi	r3,11
  805620:	1887c83a 	sub	r3,r3,r2
  805624:	80c6d83a 	srl	r3,r16,r3
  805628:	01000434 	movhi	r4,16
  80562c:	10800544 	addi	r2,r2,21
  805630:	213fffc4 	addi	r4,r4,-1
  805634:	8084983a 	sll	r2,r16,r2
  805638:	1906703a 	and	r3,r3,r4
  80563c:	00000406 	br	805650 <__floatsidf+0x70>
  805640:	0023883a 	mov	r17,zero
  805644:	000b883a 	mov	r5,zero
  805648:	0007883a 	mov	r3,zero
  80564c:	0005883a 	mov	r2,zero
  805650:	280a953a 	slli	r5,r5,20
  805654:	8c403fcc 	andi	r17,r17,255
  805658:	882297fa 	slli	r17,r17,31
  80565c:	28c6b03a 	or	r3,r5,r3
  805660:	1c46b03a 	or	r3,r3,r17
  805664:	dfc00217 	ldw	ra,8(sp)
  805668:	dc400117 	ldw	r17,4(sp)
  80566c:	dc000017 	ldw	r16,0(sp)
  805670:	dec00304 	addi	sp,sp,12
  805674:	f800283a 	ret
  805678:	10bffd44 	addi	r2,r2,-11
  80567c:	8086983a 	sll	r3,r16,r2
  805680:	00800434 	movhi	r2,16
  805684:	10bfffc4 	addi	r2,r2,-1
  805688:	1886703a 	and	r3,r3,r2
  80568c:	0005883a 	mov	r2,zero
  805690:	003fef06 	br	805650 <__floatsidf+0x70>
  805694:	0121c83a 	sub	r16,zero,r4
  805698:	003fd906 	br	805600 <__floatsidf+0x20>

0080569c <__extendsfdf2>:
  80569c:	200ad5fa 	srli	r5,r4,23
  8056a0:	defffd04 	addi	sp,sp,-12
  8056a4:	dc000015 	stw	r16,0(sp)
  8056a8:	29403fcc 	andi	r5,r5,255
  8056ac:	04002034 	movhi	r16,128
  8056b0:	28800044 	addi	r2,r5,1
  8056b4:	dc400115 	stw	r17,4(sp)
  8056b8:	843fffc4 	addi	r16,r16,-1
  8056bc:	dfc00215 	stw	ra,8(sp)
  8056c0:	10803f8c 	andi	r2,r2,254
  8056c4:	2022d7fa 	srli	r17,r4,31
  8056c8:	8120703a 	and	r16,r16,r4
  8056cc:	10000d26 	beq	r2,zero,805704 <__extendsfdf2+0x68>
  8056d0:	8008d0fa 	srli	r4,r16,3
  8056d4:	8020977a 	slli	r16,r16,29
  8056d8:	28c0e004 	addi	r3,r5,896
  8056dc:	180a953a 	slli	r5,r3,20
  8056e0:	880697fa 	slli	r3,r17,31
  8056e4:	8005883a 	mov	r2,r16
  8056e8:	290ab03a 	or	r5,r5,r4
  8056ec:	28c6b03a 	or	r3,r5,r3
  8056f0:	dfc00217 	ldw	ra,8(sp)
  8056f4:	dc400117 	ldw	r17,4(sp)
  8056f8:	dc000017 	ldw	r16,0(sp)
  8056fc:	dec00304 	addi	sp,sp,12
  805700:	f800283a 	ret
  805704:	2800111e 	bne	r5,zero,80574c <__extendsfdf2+0xb0>
  805708:	80001926 	beq	r16,zero,805770 <__extendsfdf2+0xd4>
  80570c:	8009883a 	mov	r4,r16
  805710:	08059080 	call	805908 <__clzsi2>
  805714:	10c002c8 	cmpgei	r3,r2,11
  805718:	18001b1e 	bne	r3,zero,805788 <__extendsfdf2+0xec>
  80571c:	010002c4 	movi	r4,11
  805720:	2089c83a 	sub	r4,r4,r2
  805724:	10c00544 	addi	r3,r2,21
  805728:	810ad83a 	srl	r5,r16,r4
  80572c:	80e0983a 	sll	r16,r16,r3
  805730:	00c0e244 	movi	r3,905
  805734:	01000434 	movhi	r4,16
  805738:	213fffc4 	addi	r4,r4,-1
  80573c:	1885c83a 	sub	r2,r3,r2
  805740:	2908703a 	and	r4,r5,r4
  805744:	10c1ffcc 	andi	r3,r2,2047
  805748:	003fe406 	br	8056dc <__extendsfdf2+0x40>
  80574c:	80000b26 	beq	r16,zero,80577c <__extendsfdf2+0xe0>
  805750:	800ad0fa 	srli	r5,r16,3
  805754:	00800434 	movhi	r2,16
  805758:	10bfffc4 	addi	r2,r2,-1
  80575c:	29000234 	orhi	r4,r5,8
  805760:	8020977a 	slli	r16,r16,29
  805764:	2088703a 	and	r4,r4,r2
  805768:	00c1ffc4 	movi	r3,2047
  80576c:	003fdb06 	br	8056dc <__extendsfdf2+0x40>
  805770:	0007883a 	mov	r3,zero
  805774:	0009883a 	mov	r4,zero
  805778:	003fd806 	br	8056dc <__extendsfdf2+0x40>
  80577c:	00c1ffc4 	movi	r3,2047
  805780:	0009883a 	mov	r4,zero
  805784:	003fd506 	br	8056dc <__extendsfdf2+0x40>
  805788:	113ffd44 	addi	r4,r2,-11
  80578c:	810a983a 	sll	r5,r16,r4
  805790:	0021883a 	mov	r16,zero
  805794:	003fe606 	br	805730 <__extendsfdf2+0x94>

00805798 <__truncdfsf2>:
  805798:	2806d53a 	srli	r3,r5,20
  80579c:	01800434 	movhi	r6,16
  8057a0:	31bfffc4 	addi	r6,r6,-1
  8057a4:	298c703a 	and	r6,r5,r6
  8057a8:	300490fa 	slli	r2,r6,3
  8057ac:	18c1ffcc 	andi	r3,r3,2047
  8057b0:	200cd77a 	srli	r6,r4,29
  8057b4:	19c00044 	addi	r7,r3,1
  8057b8:	39c1ff8c 	andi	r7,r7,2046
  8057bc:	280ad7fa 	srli	r5,r5,31
  8057c0:	201090fa 	slli	r8,r4,3
  8057c4:	308cb03a 	or	r6,r6,r2
  8057c8:	38000b26 	beq	r7,zero,8057f8 <__truncdfsf2+0x60>
  8057cc:	18bf2004 	addi	r2,r3,-896
  8057d0:	11c03fc8 	cmpgei	r7,r2,255
  8057d4:	38001226 	beq	r7,zero,805820 <__truncdfsf2+0x88>
  8057d8:	00ffffc4 	movi	r3,-1
  8057dc:	0009883a 	mov	r4,zero
  8057e0:	18c03fcc 	andi	r3,r3,255
  8057e4:	180495fa 	slli	r2,r3,23
  8057e8:	280a97fa 	slli	r5,r5,31
  8057ec:	1104b03a 	or	r2,r2,r4
  8057f0:	1144b03a 	or	r2,r2,r5
  8057f4:	f800283a 	ret
  8057f8:	3208b03a 	or	r4,r6,r8
  8057fc:	1800041e 	bne	r3,zero,805810 <__truncdfsf2+0x78>
  805800:	20001d1e 	bne	r4,zero,805878 <__truncdfsf2+0xe0>
  805804:	0007883a 	mov	r3,zero
  805808:	0009883a 	mov	r4,zero
  80580c:	003ff406 	br	8057e0 <__truncdfsf2+0x48>
  805810:	203ff126 	beq	r4,zero,8057d8 <__truncdfsf2+0x40>
  805814:	31001034 	orhi	r4,r6,64
  805818:	00ffffc4 	movi	r3,-1
  80581c:	003ff006 	br	8057e0 <__truncdfsf2+0x48>
  805820:	0080170e 	bge	zero,r2,805880 <__truncdfsf2+0xe8>
  805824:	200891ba 	slli	r4,r4,6
  805828:	300c90fa 	slli	r6,r6,3
  80582c:	4010d77a 	srli	r8,r8,29
  805830:	2008c03a 	cmpne	r4,r4,zero
  805834:	218cb03a 	or	r6,r4,r6
  805838:	3208b03a 	or	r4,r6,r8
  80583c:	20c001cc 	andi	r3,r4,7
  805840:	18002f26 	beq	r3,zero,805900 <__truncdfsf2+0x168>
  805844:	20c003cc 	andi	r3,r4,15
  805848:	18c00118 	cmpnei	r3,r3,4
  80584c:	18000126 	beq	r3,zero,805854 <__truncdfsf2+0xbc>
  805850:	21000104 	addi	r4,r4,4
  805854:	20c1002c 	andhi	r3,r4,1024
  805858:	18002926 	beq	r3,zero,805900 <__truncdfsf2+0x168>
  80585c:	10c00044 	addi	r3,r2,1
  805860:	18803fe0 	cmpeqi	r2,r3,255
  805864:	103fdc1e 	bne	r2,zero,8057d8 <__truncdfsf2+0x40>
  805868:	200891ba 	slli	r4,r4,6
  80586c:	2008d27a 	srli	r4,r4,9
  805870:	003fdb06 	br	8057e0 <__truncdfsf2+0x48>
  805874:	0007883a 	mov	r3,zero
  805878:	01000144 	movi	r4,5
  80587c:	003ffa06 	br	805868 <__truncdfsf2+0xd0>
  805880:	113ffa50 	cmplti	r4,r2,-23
  805884:	203ffb1e 	bne	r4,zero,805874 <__truncdfsf2+0xdc>
  805888:	01000784 	movi	r4,30
  80588c:	2089c83a 	sub	r4,r4,r2
  805890:	21c00808 	cmpgei	r7,r4,32
  805894:	31802034 	orhi	r6,r6,128
  805898:	38001126 	beq	r7,zero,8058e0 <__truncdfsf2+0x148>
  80589c:	01ffff84 	movi	r7,-2
  8058a0:	3885c83a 	sub	r2,r7,r2
  8058a4:	21000820 	cmpeqi	r4,r4,32
  8058a8:	3084d83a 	srl	r2,r6,r2
  8058ac:	2000031e 	bne	r4,zero,8058bc <__truncdfsf2+0x124>
  8058b0:	18ff2884 	addi	r3,r3,-862
  8058b4:	30c6983a 	sll	r3,r6,r3
  8058b8:	40d0b03a 	or	r8,r8,r3
  8058bc:	4008c03a 	cmpne	r4,r8,zero
  8058c0:	2088b03a 	or	r4,r4,r2
  8058c4:	20c001cc 	andi	r3,r4,7
  8058c8:	0005883a 	mov	r2,zero
  8058cc:	183fdd1e 	bne	r3,zero,805844 <__truncdfsf2+0xac>
  8058d0:	2081002c 	andhi	r2,r4,1024
  8058d4:	103fe426 	beq	r2,zero,805868 <__truncdfsf2+0xd0>
  8058d8:	00c00044 	movi	r3,1
  8058dc:	003fe206 	br	805868 <__truncdfsf2+0xd0>
  8058e0:	18ff2084 	addi	r3,r3,-894
  8058e4:	40c4983a 	sll	r2,r8,r3
  8058e8:	30c6983a 	sll	r3,r6,r3
  8058ec:	4108d83a 	srl	r4,r8,r4
  8058f0:	100cc03a 	cmpne	r6,r2,zero
  8058f4:	30c6b03a 	or	r3,r6,r3
  8058f8:	20c8b03a 	or	r4,r4,r3
  8058fc:	003ff106 	br	8058c4 <__truncdfsf2+0x12c>
  805900:	1007883a 	mov	r3,r2
  805904:	003fd806 	br	805868 <__truncdfsf2+0xd0>

00805908 <__clzsi2>:
  805908:	00bfffd4 	movui	r2,65535
  80590c:	11000436 	bltu	r2,r4,805920 <__clzsi2+0x18>
  805910:	20804030 	cmpltui	r2,r4,256
  805914:	10000e26 	beq	r2,zero,805950 <__clzsi2+0x48>
  805918:	01400804 	movi	r5,32
  80591c:	00000406 	br	805930 <__clzsi2+0x28>
  805920:	00804034 	movhi	r2,256
  805924:	20800736 	bltu	r4,r2,805944 <__clzsi2+0x3c>
  805928:	2008d63a 	srli	r4,r4,24
  80592c:	01400204 	movi	r5,8
  805930:	00c02074 	movhi	r3,129
  805934:	20c7883a 	add	r3,r4,r3
  805938:	188ac603 	ldbu	r2,11032(r3)
  80593c:	2885c83a 	sub	r2,r5,r2
  805940:	f800283a 	ret
  805944:	2008d43a 	srli	r4,r4,16
  805948:	01400404 	movi	r5,16
  80594c:	003ff806 	br	805930 <__clzsi2+0x28>
  805950:	2008d23a 	srli	r4,r4,8
  805954:	01400604 	movi	r5,24
  805958:	003ff506 	br	805930 <__clzsi2+0x28>

0080595c <__mulsi3>:
  80595c:	0005883a 	mov	r2,zero
  805960:	20000726 	beq	r4,zero,805980 <__mulsi3+0x24>
  805964:	20c0004c 	andi	r3,r4,1
  805968:	2008d07a 	srli	r4,r4,1
  80596c:	18000126 	beq	r3,zero,805974 <__mulsi3+0x18>
  805970:	1145883a 	add	r2,r2,r5
  805974:	294b883a 	add	r5,r5,r5
  805978:	203ffa1e 	bne	r4,zero,805964 <__mulsi3+0x8>
  80597c:	f800283a 	ret
  805980:	f800283a 	ret

00805984 <_printf_r>:
  805984:	defffd04 	addi	sp,sp,-12
  805988:	2805883a 	mov	r2,r5
  80598c:	dfc00015 	stw	ra,0(sp)
  805990:	d9800115 	stw	r6,4(sp)
  805994:	d9c00215 	stw	r7,8(sp)
  805998:	21400217 	ldw	r5,8(r4)
  80599c:	d9c00104 	addi	r7,sp,4
  8059a0:	100d883a 	mov	r6,r2
  8059a4:	0805b600 	call	805b60 <___vfprintf_internal_r>
  8059a8:	dfc00017 	ldw	ra,0(sp)
  8059ac:	dec00304 	addi	sp,sp,12
  8059b0:	f800283a 	ret

008059b4 <printf>:
  8059b4:	defffc04 	addi	sp,sp,-16
  8059b8:	dfc00015 	stw	ra,0(sp)
  8059bc:	d9400115 	stw	r5,4(sp)
  8059c0:	d9800215 	stw	r6,8(sp)
  8059c4:	d9c00315 	stw	r7,12(sp)
  8059c8:	00802074 	movhi	r2,129
  8059cc:	10934317 	ldw	r2,19724(r2)
  8059d0:	200b883a 	mov	r5,r4
  8059d4:	d9800104 	addi	r6,sp,4
  8059d8:	11000217 	ldw	r4,8(r2)
  8059dc:	0807c4c0 	call	807c4c <__vfprintf_internal>
  8059e0:	dfc00017 	ldw	ra,0(sp)
  8059e4:	dec00404 	addi	sp,sp,16
  8059e8:	f800283a 	ret

008059ec <_puts_r>:
  8059ec:	defff504 	addi	sp,sp,-44
  8059f0:	dc000815 	stw	r16,32(sp)
  8059f4:	2021883a 	mov	r16,r4
  8059f8:	2809883a 	mov	r4,r5
  8059fc:	dc400915 	stw	r17,36(sp)
  805a00:	dfc00a15 	stw	ra,40(sp)
  805a04:	2823883a 	mov	r17,r5
  805a08:	0805ac80 	call	805ac8 <strlen>
  805a0c:	11000044 	addi	r4,r2,1
  805a10:	d8800515 	stw	r2,20(sp)
  805a14:	00800044 	movi	r2,1
  805a18:	00c02074 	movhi	r3,129
  805a1c:	d8800715 	stw	r2,28(sp)
  805a20:	d8800404 	addi	r2,sp,16
  805a24:	18cb0604 	addi	r3,r3,11288
  805a28:	d8800115 	stw	r2,4(sp)
  805a2c:	00800084 	movi	r2,2
  805a30:	dc400415 	stw	r17,16(sp)
  805a34:	d8c00615 	stw	r3,24(sp)
  805a38:	d9000315 	stw	r4,12(sp)
  805a3c:	d8800215 	stw	r2,8(sp)
  805a40:	81400217 	ldw	r5,8(r16)
  805a44:	80000226 	beq	r16,zero,805a50 <_puts_r+0x64>
  805a48:	80800e17 	ldw	r2,56(r16)
  805a4c:	10001326 	beq	r2,zero,805a9c <_puts_r+0xb0>
  805a50:	2880030b 	ldhu	r2,12(r5)
  805a54:	10c8000c 	andi	r3,r2,8192
  805a58:	1800061e 	bne	r3,zero,805a74 <_puts_r+0x88>
  805a5c:	28c01917 	ldw	r3,100(r5)
  805a60:	0137ffc4 	movi	r4,-8193
  805a64:	10880014 	ori	r2,r2,8192
